Component: ARM Compiler 5.06 update 7 (build 960) Tool: armlink [4d3601]

==============================================================================

Image Symbol Table

    Local Symbols

    Symbol Name                              Value     Ov Type        Size  Object(Section)

    ../Drivers/STM32L0xx_HAL_Driver/Src/stm32l0xx_hal.c 0x00000000   Number         0  stm32l0xx_hal.o ABSOLUTE
    ../Drivers/STM32L0xx_HAL_Driver/Src/stm32l0xx_hal_adc.c 0x00000000   Number         0  stm32l0xx_hal_adc.o ABSOLUTE
    ../Drivers/STM32L0xx_HAL_Driver/Src/stm32l0xx_hal_adc_ex.c 0x00000000   Number         0  stm32l0xx_hal_adc_ex.o ABSOLUTE
    ../Drivers/STM32L0xx_HAL_Driver/Src/stm32l0xx_hal_cortex.c 0x00000000   Number         0  stm32l0xx_hal_cortex.o ABSOLUTE
    ../Drivers/STM32L0xx_HAL_Driver/Src/stm32l0xx_hal_dma.c 0x00000000   Number         0  stm32l0xx_hal_dma.o ABSOLUTE
    ../Drivers/STM32L0xx_HAL_Driver/Src/stm32l0xx_hal_exti.c 0x00000000   Number         0  stm32l0xx_hal_exti.o ABSOLUTE
    ../Drivers/STM32L0xx_HAL_Driver/Src/stm32l0xx_hal_flash.c 0x00000000   Number         0  stm32l0xx_hal_flash.o ABSOLUTE
    ../Drivers/STM32L0xx_HAL_Driver/Src/stm32l0xx_hal_flash_ex.c 0x00000000   Number         0  stm32l0xx_hal_flash_ex.o ABSOLUTE
    ../Drivers/STM32L0xx_HAL_Driver/Src/stm32l0xx_hal_flash_ramfunc.c 0x00000000   Number         0  stm32l0xx_hal_flash_ramfunc.o ABSOLUTE
    ../Drivers/STM32L0xx_HAL_Driver/Src/stm32l0xx_hal_gpio.c 0x00000000   Number         0  stm32l0xx_hal_gpio.o ABSOLUTE
    ../Drivers/STM32L0xx_HAL_Driver/Src/stm32l0xx_hal_i2c.c 0x00000000   Number         0  stm32l0xx_hal_i2c.o ABSOLUTE
    ../Drivers/STM32L0xx_HAL_Driver/Src/stm32l0xx_hal_i2c_ex.c 0x00000000   Number         0  stm32l0xx_hal_i2c_ex.o ABSOLUTE
    ../Drivers/STM32L0xx_HAL_Driver/Src/stm32l0xx_hal_iwdg.c 0x00000000   Number         0  stm32l0xx_hal_iwdg.o ABSOLUTE
    ../Drivers/STM32L0xx_HAL_Driver/Src/stm32l0xx_hal_pwr.c 0x00000000   Number         0  stm32l0xx_hal_pwr.o ABSOLUTE
    ../Drivers/STM32L0xx_HAL_Driver/Src/stm32l0xx_hal_pwr_ex.c 0x00000000   Number         0  stm32l0xx_hal_pwr_ex.o ABSOLUTE
    ../Drivers/STM32L0xx_HAL_Driver/Src/stm32l0xx_hal_rcc.c 0x00000000   Number         0  stm32l0xx_hal_rcc.o ABSOLUTE
    ../Drivers/STM32L0xx_HAL_Driver/Src/stm32l0xx_hal_rcc_ex.c 0x00000000   Number         0  stm32l0xx_hal_rcc_ex.o ABSOLUTE
    ../Drivers/STM32L0xx_HAL_Driver/Src/stm32l0xx_hal_rtc.c 0x00000000   Number         0  stm32l0xx_hal_rtc.o ABSOLUTE
    ../Drivers/STM32L0xx_HAL_Driver/Src/stm32l0xx_hal_rtc_ex.c 0x00000000   Number         0  stm32l0xx_hal_rtc_ex.o ABSOLUTE
    ../Drivers/STM32L0xx_HAL_Driver/Src/stm32l0xx_hal_tim.c 0x00000000   Number         0  stm32l0xx_hal_tim.o ABSOLUTE
    ../Drivers/STM32L0xx_HAL_Driver/Src/stm32l0xx_hal_tim_ex.c 0x00000000   Number         0  stm32l0xx_hal_tim_ex.o ABSOLUTE
    ../Drivers/STM32L0xx_HAL_Driver/Src/stm32l0xx_hal_uart.c 0x00000000   Number         0  stm32l0xx_hal_uart.o ABSOLUTE
    ../Drivers/STM32L0xx_HAL_Driver/Src/stm32l0xx_hal_uart_ex.c 0x00000000   Number         0  stm32l0xx_hal_uart_ex.o ABSOLUTE
    ../Src/adc.c                             0x00000000   Number         0  adc.o ABSOLUTE
    ../Src/dma.c                             0x00000000   Number         0  dma.o ABSOLUTE
    ../Src/gpio.c                            0x00000000   Number         0  gpio.o ABSOLUTE
    ../Src/i2c.c                             0x00000000   Number         0  i2c.o ABSOLUTE
    ../Src/iwdg.c                            0x00000000   Number         0  iwdg.o ABSOLUTE
    ../Src/main.c                            0x00000000   Number         0  main.o ABSOLUTE
    ../Src/rtc.c                             0x00000000   Number         0  rtc.o ABSOLUTE
    ../Src/stm32l0xx_hal_msp.c               0x00000000   Number         0  stm32l0xx_hal_msp.o ABSOLUTE
    ../Src/stm32l0xx_it.c                    0x00000000   Number         0  stm32l0xx_it.o ABSOLUTE
    ../Src/system_stm32l0xx.c                0x00000000   Number         0  system_stm32l0xx.o ABSOLUTE
    ../Src/usart.c                           0x00000000   Number         0  usart.o ABSOLUTE
    ../clib/microlib/ctype/ctype.c           0x00000000   Number         0  isxdigit_o.o ABSOLUTE
    ../clib/microlib/ctype/ctype.c           0x00000000   Number         0  isspace_c.o ABSOLUTE
    ../clib/microlib/ctype/ctype.c           0x00000000   Number         0  isupper_o.o ABSOLUTE
    ../clib/microlib/ctype/ctype.c           0x00000000   Number         0  isspace_o.o ABSOLUTE
    ../clib/microlib/ctype/ctype.c           0x00000000   Number         0  ispunct_o.o ABSOLUTE
    ../clib/microlib/ctype/ctype.c           0x00000000   Number         0  islower_o.o ABSOLUTE
    ../clib/microlib/ctype/ctype.c           0x00000000   Number         0  isgraph_o.o ABSOLUTE
    ../clib/microlib/ctype/ctype.c           0x00000000   Number         0  isdigit_o.o ABSOLUTE
    ../clib/microlib/ctype/ctype.c           0x00000000   Number         0  iscntrl_o.o ABSOLUTE
    ../clib/microlib/ctype/ctype.c           0x00000000   Number         0  ctype_o.o ABSOLUTE
    ../clib/microlib/ctype/ctype.c           0x00000000   Number         0  isprint_o.o ABSOLUTE
    ../clib/microlib/ctype/ctype.c           0x00000000   Number         0  isblank_o.o ABSOLUTE
    ../clib/microlib/ctype/ctype.c           0x00000000   Number         0  isalpha_o.o ABSOLUTE
    ../clib/microlib/ctype/ctype.c           0x00000000   Number         0  isalnum_o.o ABSOLUTE
    ../clib/microlib/ctype/ctype.c           0x00000000   Number         0  ctype_c.o ABSOLUTE
    ../clib/microlib/division.c              0x00000000   Number         0  uldiv.o ABSOLUTE
    ../clib/microlib/division.c              0x00000000   Number         0  uidiv.o ABSOLUTE
    ../clib/microlib/division.c              0x00000000   Number         0  idiv.o ABSOLUTE
    ../clib/microlib/errno.c                 0x00000000   Number         0  errno.o ABSOLUTE
    ../clib/microlib/init/entry.s            0x00000000   Number         0  entry7a.o ABSOLUTE
    ../clib/microlib/init/entry.s            0x00000000   Number         0  entry7b.o ABSOLUTE
    ../clib/microlib/init/entry.s            0x00000000   Number         0  entry.o ABSOLUTE
    ../clib/microlib/init/entry.s            0x00000000   Number         0  entry11b.o ABSOLUTE
    ../clib/microlib/init/entry.s            0x00000000   Number         0  entry8b.o ABSOLUTE
    ../clib/microlib/init/entry.s            0x00000000   Number         0  entry2.o ABSOLUTE
    ../clib/microlib/init/entry.s            0x00000000   Number         0  entry9a.o ABSOLUTE
    ../clib/microlib/init/entry.s            0x00000000   Number         0  entry8a.o ABSOLUTE
    ../clib/microlib/init/entry.s            0x00000000   Number         0  entry9b.o ABSOLUTE
    ../clib/microlib/init/entry.s            0x00000000   Number         0  entry10a.o ABSOLUTE
    ../clib/microlib/init/entry.s            0x00000000   Number         0  entry10b.o ABSOLUTE
    ../clib/microlib/init/entry.s            0x00000000   Number         0  entry5.o ABSOLUTE
    ../clib/microlib/init/entry.s            0x00000000   Number         0  entry11a.o ABSOLUTE
    ../clib/microlib/init/entry.s            0x00000000   Number         0  entry12a.o ABSOLUTE
    ../clib/microlib/init/entry.s            0x00000000   Number         0  entry12b.o ABSOLUTE
    ../clib/microlib/longlong.c              0x00000000   Number         0  llsshr.o ABSOLUTE
    ../clib/microlib/longlong.c              0x00000000   Number         0  llushr.o ABSOLUTE
    ../clib/microlib/longlong.c              0x00000000   Number         0  llshl.o ABSOLUTE
    ../clib/microlib/longlong.c              0x00000000   Number         0  llmul.o ABSOLUTE
    ../clib/microlib/malloc/malloc.c         0x00000000   Number         0  malloc.o ABSOLUTE
    ../clib/microlib/malloc/malloc.c         0x00000000   Number         0  mallocr.o ABSOLUTE
    ../clib/microlib/malloc/malloc.c         0x00000000   Number         0  malloca.o ABSOLUTE
    ../clib/microlib/malloc/malloc.c         0x00000000   Number         0  mallocra.o ABSOLUTE
    ../clib/microlib/malloc/mvars.c          0x00000000   Number         0  mvars.o ABSOLUTE
    ../clib/microlib/printf/printf.c         0x00000000   Number         0  printf4.o ABSOLUTE
    ../clib/microlib/printf/printf.c         0x00000000   Number         0  printf6.o ABSOLUTE
    ../clib/microlib/printf/printf.c         0x00000000   Number         0  printf5.o ABSOLUTE
    ../clib/microlib/printf/printf.c         0x00000000   Number         0  printfb.o ABSOLUTE
    ../clib/microlib/printf/printf.c         0x00000000   Number         0  printf0.o ABSOLUTE
    ../clib/microlib/printf/printf.c         0x00000000   Number         0  printf1.o ABSOLUTE
    ../clib/microlib/printf/printf.c         0x00000000   Number         0  printf8.o ABSOLUTE
    ../clib/microlib/printf/printf.c         0x00000000   Number         0  printf7.o ABSOLUTE
    ../clib/microlib/printf/printf.c         0x00000000   Number         0  printf2.o ABSOLUTE
    ../clib/microlib/printf/printf.c         0x00000000   Number         0  printfa.o ABSOLUTE
    ../clib/microlib/printf/printf.c         0x00000000   Number         0  printf3.o ABSOLUTE
    ../clib/microlib/printf/stubs.s          0x00000000   Number         0  stubs.o ABSOLUTE
    ../clib/microlib/stdio/fputc.c           0x00000000   Number         0  fputc.o ABSOLUTE
    ../clib/microlib/stdio/semi.s            0x00000000   Number         0  semi.o ABSOLUTE
    ../clib/microlib/stdio/streams.c         0x00000000   Number         0  stdout.o ABSOLUTE
    ../clib/microlib/string/memcpy.c         0x00000000   Number         0  memcpyb.o ABSOLUTE
    ../clib/microlib/string/memcpy.c         0x00000000   Number         0  memcpya.o ABSOLUTE
    ../clib/microlib/string/memset.c         0x00000000   Number         0  memseta.o ABSOLUTE
    ../clib/microlib/string/strcpy.c         0x00000000   Number         0  strcpy.o ABSOLUTE
    ../clib/microlib/string/strlen.c         0x00000000   Number         0  strlen.o ABSOLUTE
    ../clib/microlib/string/strncpy.c        0x00000000   Number         0  strncpy.o ABSOLUTE
    ../clib/microlib/string/strstr.c         0x00000000   Number         0  strstr.o ABSOLUTE
    ../clib/microlib/stubs.s                 0x00000000   Number         0  iusesemip.o ABSOLUTE
    ../clib/microlib/stubs.s                 0x00000000   Number         0  iusefp.o ABSOLUTE
    ../clib/microlib/time/localtime.c        0x00000000   Number         0  localtime_w.o ABSOLUTE
    ../clib/microlib/time/localtime.c        0x00000000   Number         0  localtime_i.o ABSOLUTE
    ../clib/microlib/time/mktime.c           0x00000000   Number         0  mktime.o ABSOLUTE
    ../clib/scanf.c                          0x00000000   Number         0  scanf_fp.o ABSOLUTE
    ../clib/scanf.c                          0x00000000   Number         0  atol.o ABSOLUTE
    ../clib/scanf.c                          0x00000000   Number         0  atoi.o ABSOLUTE
    ../clib/scanf.c                          0x00000000   Number         0  _sgetc.o ABSOLUTE
    ../clib/scanf.c                          0x00000000   Number         0  _chval.o ABSOLUTE
    ../clib/scanf.c                          0x00000000   Number         0  _strtoul.o ABSOLUTE
    ../clib/scanf.c                          0x00000000   Number         0  strtod.o ABSOLUTE
    ../clib/scanf.c                          0x00000000   Number         0  strtol.o ABSOLUTE
    ../clib/scanf.c                          0x00000000   Number         0  strtoul.o ABSOLUTE
    ../fplib/microlib/d2f.c                  0x00000000   Number         0  d2f.o ABSOLUTE
    ../fplib/microlib/f2d.c                  0x00000000   Number         0  f2d.o ABSOLUTE
    ../fplib/microlib/fpadd.c                0x00000000   Number         0  dadd.o ABSOLUTE
    ../fplib/microlib/fpadd.c                0x00000000   Number         0  fadd.o ABSOLUTE
    ../fplib/microlib/fpdiv.c                0x00000000   Number         0  fdiv.o ABSOLUTE
    ../fplib/microlib/fpdiv.c                0x00000000   Number         0  ddiv.o ABSOLUTE
    ../fplib/microlib/fpepilogue.c           0x00000000   Number         0  depilogue.o ABSOLUTE
    ../fplib/microlib/fpepilogue.c           0x00000000   Number         0  fepilogue.o ABSOLUTE
    ../fplib/microlib/fpfix.c                0x00000000   Number         0  dfixi.o ABSOLUTE
    ../fplib/microlib/fpfix.c                0x00000000   Number         0  dfixui.o ABSOLUTE
    ../fplib/microlib/fpfix.c                0x00000000   Number         0  ffixui.o ABSOLUTE
    ../fplib/microlib/fpfix.c                0x00000000   Number         0  dfixul.o ABSOLUTE
    ../fplib/microlib/fpflt.c                0x00000000   Number         0  dfltul.o ABSOLUTE
    ../fplib/microlib/fpflt.c                0x00000000   Number         0  ffltui.o ABSOLUTE
    ../fplib/microlib/fpflt.c                0x00000000   Number         0  dflti.o ABSOLUTE
    ../fplib/microlib/fpflt.c                0x00000000   Number         0  dfltui.o ABSOLUTE
    ../fplib/microlib/fpmul.c                0x00000000   Number         0  dmul.o ABSOLUTE
    ../fplib/microlib/fpmul.c                0x00000000   Number         0  fmul.o ABSOLUTE
    ../fplib/microlib/fpscalb.c              0x00000000   Number         0  dscalb.o ABSOLUTE
    ../fplib/microlib/fpsqrt.c               0x00000000   Number         0  dsqrt.o ABSOLUTE
    ../mathlib/asin.c                        0x00000000   Number         0  asin.o ABSOLUTE
    ../mathlib/asin.c                        0x00000000   Number         0  asin_x.o ABSOLUTE
    ../mathlib/atof.c                        0x00000000   Number         0  atof.o ABSOLUTE
    ../mathlib/cos.c                         0x00000000   Number         0  cos_x.o ABSOLUTE
    ../mathlib/cos.c                         0x00000000   Number         0  cos.o ABSOLUTE
    ../mathlib/cos_i.c                       0x00000000   Number         0  cos_i.o ABSOLUTE
    ../mathlib/dunder.c                      0x00000000   Number         0  dunder.o ABSOLUTE
    ../mathlib/fpclassify.c                  0x00000000   Number         0  fpclassify.o ABSOLUTE
    ../mathlib/poly.c                        0x00000000   Number         0  poly.o ABSOLUTE
    ../mathlib/pow.c                         0x00000000   Number         0  pow.o ABSOLUTE
    ../mathlib/pow.c                         0x00000000   Number         0  pow_x.o ABSOLUTE
    ../mathlib/qnan.c                        0x00000000   Number         0  qnan.o ABSOLUTE
    ../mathlib/rred.c                        0x00000000   Number         0  rred.o ABSOLUTE
    ../mathlib/sin.c                         0x00000000   Number         0  sin_x.o ABSOLUTE
    ../mathlib/sin.c                         0x00000000   Number         0  sin.o ABSOLUTE
    ../mathlib/sin_i.c                       0x00000000   Number         0  sin_i_x.o ABSOLUTE
    ../mathlib/sin_i.c                       0x00000000   Number         0  sin_i.o ABSOLUTE
    ../mathlib/sqrt.c                        0x00000000   Number         0  sqrt_x.o ABSOLUTE
    ../mathlib/sqrt.c                        0x00000000   Number         0  sqrt.o ABSOLUTE
    ..\App\app_atcmd.c                       0x00000000   Number         0  app_atcmd.o ABSOLUTE
    ..\App\app_ble.c                         0x00000000   Number         0  app_ble.o ABSOLUTE
    ..\App\app_gps.c                         0x00000000   Number         0  app_gps.o ABSOLUTE
    ..\App\app_gpsarithmetic.c               0x00000000   Number         0  app_gpsarithmetic.o ABSOLUTE
    ..\App\app_gpsrestore.c                  0x00000000   Number         0  app_gpsrestore.o ABSOLUTE
    ..\App\app_instructioncmd.c              0x00000000   Number         0  app_instructioncmd.o ABSOLUTE
    ..\App\app_kernal.c                      0x00000000   Number         0  app_kernal.o ABSOLUTE
    ..\App\app_mir3da.c                      0x00000000   Number         0  app_mir3da.o ABSOLUTE
    ..\App\app_net.c                         0x00000000   Number         0  app_net.o ABSOLUTE
    ..\App\app_nmea.c                        0x00000000   Number         0  app_nmea.o ABSOLUTE
    ..\App\app_param.c                       0x00000000   Number         0  app_param.o ABSOLUTE
    ..\App\app_port.c                        0x00000000   Number         0  app_port.o ABSOLUTE
    ..\App\app_rec.c                         0x00000000   Number         0  app_rec.o ABSOLUTE
    ..\App\app_serverprotocol.c              0x00000000   Number         0  app_serverprotocol.o ABSOLUTE
    ..\App\app_sn.c                          0x00000000   Number         0  app_sn.o ABSOLUTE
    ..\App\app_sys.c                         0x00000000   Number         0  app_sys.o ABSOLUTE
    ..\App\app_task.c                        0x00000000   Number         0  app_task.o ABSOLUTE
    ..\App\app_user.c                        0x00000000   Number         0  app_user.o ABSOLUTE
    ..\Drivers\STM32L0xx_HAL_Driver\Src\stm32l0xx_hal.c 0x00000000   Number         0  stm32l0xx_hal.o ABSOLUTE
    ..\Drivers\STM32L0xx_HAL_Driver\Src\stm32l0xx_hal_adc.c 0x00000000   Number         0  stm32l0xx_hal_adc.o ABSOLUTE
    ..\Drivers\STM32L0xx_HAL_Driver\Src\stm32l0xx_hal_adc_ex.c 0x00000000   Number         0  stm32l0xx_hal_adc_ex.o ABSOLUTE
    ..\Drivers\STM32L0xx_HAL_Driver\Src\stm32l0xx_hal_cortex.c 0x00000000   Number         0  stm32l0xx_hal_cortex.o ABSOLUTE
    ..\Drivers\STM32L0xx_HAL_Driver\Src\stm32l0xx_hal_dma.c 0x00000000   Number         0  stm32l0xx_hal_dma.o ABSOLUTE
    ..\Drivers\STM32L0xx_HAL_Driver\Src\stm32l0xx_hal_exti.c 0x00000000   Number         0  stm32l0xx_hal_exti.o ABSOLUTE
    ..\Drivers\STM32L0xx_HAL_Driver\Src\stm32l0xx_hal_flash.c 0x00000000   Number         0  stm32l0xx_hal_flash.o ABSOLUTE
    ..\Drivers\STM32L0xx_HAL_Driver\Src\stm32l0xx_hal_flash_ex.c 0x00000000   Number         0  stm32l0xx_hal_flash_ex.o ABSOLUTE
    ..\Drivers\STM32L0xx_HAL_Driver\Src\stm32l0xx_hal_flash_ramfunc.c 0x00000000   Number         0  stm32l0xx_hal_flash_ramfunc.o ABSOLUTE
    ..\Drivers\STM32L0xx_HAL_Driver\Src\stm32l0xx_hal_gpio.c 0x00000000   Number         0  stm32l0xx_hal_gpio.o ABSOLUTE
    ..\Drivers\STM32L0xx_HAL_Driver\Src\stm32l0xx_hal_i2c.c 0x00000000   Number         0  stm32l0xx_hal_i2c.o ABSOLUTE
    ..\Drivers\STM32L0xx_HAL_Driver\Src\stm32l0xx_hal_i2c_ex.c 0x00000000   Number         0  stm32l0xx_hal_i2c_ex.o ABSOLUTE
    ..\Drivers\STM32L0xx_HAL_Driver\Src\stm32l0xx_hal_iwdg.c 0x00000000   Number         0  stm32l0xx_hal_iwdg.o ABSOLUTE
    ..\Drivers\STM32L0xx_HAL_Driver\Src\stm32l0xx_hal_pwr.c 0x00000000   Number         0  stm32l0xx_hal_pwr.o ABSOLUTE
    ..\Drivers\STM32L0xx_HAL_Driver\Src\stm32l0xx_hal_pwr_ex.c 0x00000000   Number         0  stm32l0xx_hal_pwr_ex.o ABSOLUTE
    ..\Drivers\STM32L0xx_HAL_Driver\Src\stm32l0xx_hal_rcc.c 0x00000000   Number         0  stm32l0xx_hal_rcc.o ABSOLUTE
    ..\Drivers\STM32L0xx_HAL_Driver\Src\stm32l0xx_hal_rcc_ex.c 0x00000000   Number         0  stm32l0xx_hal_rcc_ex.o ABSOLUTE
    ..\Drivers\STM32L0xx_HAL_Driver\Src\stm32l0xx_hal_rtc.c 0x00000000   Number         0  stm32l0xx_hal_rtc.o ABSOLUTE
    ..\Drivers\STM32L0xx_HAL_Driver\Src\stm32l0xx_hal_rtc_ex.c 0x00000000   Number         0  stm32l0xx_hal_rtc_ex.o ABSOLUTE
    ..\Drivers\STM32L0xx_HAL_Driver\Src\stm32l0xx_hal_tim.c 0x00000000   Number         0  stm32l0xx_hal_tim.o ABSOLUTE
    ..\Drivers\STM32L0xx_HAL_Driver\Src\stm32l0xx_hal_tim_ex.c 0x00000000   Number         0  stm32l0xx_hal_tim_ex.o ABSOLUTE
    ..\Drivers\STM32L0xx_HAL_Driver\Src\stm32l0xx_hal_uart.c 0x00000000   Number         0  stm32l0xx_hal_uart.o ABSOLUTE
    ..\Drivers\STM32L0xx_HAL_Driver\Src\stm32l0xx_hal_uart_ex.c 0x00000000   Number         0  stm32l0xx_hal_uart_ex.o ABSOLUTE
    ..\Src\adc.c                             0x00000000   Number         0  adc.o ABSOLUTE
    ..\Src\dma.c                             0x00000000   Number         0  dma.o ABSOLUTE
    ..\Src\gpio.c                            0x00000000   Number         0  gpio.o ABSOLUTE
    ..\Src\i2c.c                             0x00000000   Number         0  i2c.o ABSOLUTE
    ..\Src\iwdg.c                            0x00000000   Number         0  iwdg.o ABSOLUTE
    ..\Src\main.c                            0x00000000   Number         0  main.o ABSOLUTE
    ..\Src\rtc.c                             0x00000000   Number         0  rtc.o ABSOLUTE
    ..\Src\stm32l0xx_hal_msp.c               0x00000000   Number         0  stm32l0xx_hal_msp.o ABSOLUTE
    ..\Src\stm32l0xx_it.c                    0x00000000   Number         0  stm32l0xx_it.o ABSOLUTE
    ..\Src\system_stm32l0xx.c                0x00000000   Number         0  system_stm32l0xx.o ABSOLUTE
    ..\Src\usart.c                           0x00000000   Number         0  usart.o ABSOLUTE
    ..\\App\\app_atcmd.c                     0x00000000   Number         0  app_atcmd.o ABSOLUTE
    ..\\App\\app_ble.c                       0x00000000   Number         0  app_ble.o ABSOLUTE
    ..\\App\\app_gps.c                       0x00000000   Number         0  app_gps.o ABSOLUTE
    ..\\App\\app_gpsarithmetic.c             0x00000000   Number         0  app_gpsarithmetic.o ABSOLUTE
    ..\\App\\app_gpsrestore.c                0x00000000   Number         0  app_gpsrestore.o ABSOLUTE
    ..\\App\\app_instructioncmd.c            0x00000000   Number         0  app_instructioncmd.o ABSOLUTE
    ..\\App\\app_kernal.c                    0x00000000   Number         0  app_kernal.o ABSOLUTE
    ..\\App\\app_mir3da.c                    0x00000000   Number         0  app_mir3da.o ABSOLUTE
    ..\\App\\app_net.c                       0x00000000   Number         0  app_net.o ABSOLUTE
    ..\\App\\app_nmea.c                      0x00000000   Number         0  app_nmea.o ABSOLUTE
    ..\\App\\app_param.c                     0x00000000   Number         0  app_param.o ABSOLUTE
    ..\\App\\app_port.c                      0x00000000   Number         0  app_port.o ABSOLUTE
    ..\\App\\app_rec.c                       0x00000000   Number         0  app_rec.o ABSOLUTE
    ..\\App\\app_serverprotocol.c            0x00000000   Number         0  app_serverprotocol.o ABSOLUTE
    ..\\App\\app_sn.c                        0x00000000   Number         0  app_sn.o ABSOLUTE
    ..\\App\\app_sys.c                       0x00000000   Number         0  app_sys.o ABSOLUTE
    ..\\App\\app_task.c                      0x00000000   Number         0  app_task.o ABSOLUTE
    ..\\App\\app_user.c                      0x00000000   Number         0  app_user.o ABSOLUTE
    cdcmple.s                                0x00000000   Number         0  cdcmple.o ABSOLUTE
    cdrcmple.s                               0x00000000   Number         0  cdrcmple.o ABSOLUTE
    cfcmple.s                                0x00000000   Number         0  cfcmple.o ABSOLUTE
    dc.s                                     0x00000000   Number         0  dc.o ABSOLUTE
    handlers.s                               0x00000000   Number         0  handlers.o ABSOLUTE
    init.s                                   0x00000000   Number         0  init.o ABSOLUTE
    startup_stm32l071xx.s                    0x00000000   Number         0  startup_stm32l071xx.o ABSOLUTE
    RESET                                    0x08007800   Section      192  startup_stm32l071xx.o(RESET)
    .ARM.Collect$$$$00000000                 0x080078c0   Section        0  entry.o(.ARM.Collect$$$$00000000)
    .ARM.Collect$$$$00000001                 0x080078c0   Section        4  entry2.o(.ARM.Collect$$$$00000001)
    .ARM.Collect$$$$00000004                 0x080078c4   Section        4  entry5.o(.ARM.Collect$$$$00000004)
    .ARM.Collect$$$$00000008                 0x080078c8   Section        0  entry7b.o(.ARM.Collect$$$$00000008)
    .ARM.Collect$$$$0000000A                 0x080078c8   Section        0  entry8b.o(.ARM.Collect$$$$0000000A)
    .ARM.Collect$$$$0000000B                 0x080078c8   Section        8  entry9a.o(.ARM.Collect$$$$0000000B)
    .ARM.Collect$$$$0000000E                 0x080078d0   Section        4  entry12b.o(.ARM.Collect$$$$0000000E)
    .ARM.Collect$$$$0000000F                 0x080078d4   Section        0  entry10a.o(.ARM.Collect$$$$0000000F)
    .ARM.Collect$$$$00000011                 0x080078d4   Section        0  entry11a.o(.ARM.Collect$$$$00000011)
    .ARM.Collect$$$$00002712                 0x080078d4   Section        4  entry2.o(.ARM.Collect$$$$00002712)
    __lit__00000000                          0x080078d4   Data           4  entry2.o(.ARM.Collect$$$$00002712)
    .text                                    0x080078d8   Section       28  startup_stm32l071xx.o(.text)
    .text                                    0x080078f4   Section        0  uidiv.o(.text)
    .text                                    0x08007920   Section        0  idiv.o(.text)
    .text                                    0x08007948   Section        0  uldiv.o(.text)
    .text                                    0x080079a8   Section        0  mktime.o(.text)
    .text                                    0x08007a34   Section        0  memcpya.o(.text)
    .text                                    0x08007a58   Section        0  memseta.o(.text)
    .text                                    0x08007a7c   Section        0  strstr.o(.text)
    .text                                    0x08007aa4   Section        0  strncpy.o(.text)
    .text                                    0x08007abe   Section        0  strlen.o(.text)
    .text                                    0x08007acc   Section        0  strcpy.o(.text)
    .text                                    0x08007ade   Section        0  strtoul.o(.text)
    .text                                    0x08007b54   Section        0  atoi.o(.text)
    .text                                    0x08007b6e   Section        0  atol.o(.text)
    .text                                    0x08007b88   Section        0  fadd.o(.text)
    .text                                    0x08007c3a   Section        0  fmul.o(.text)
    .text                                    0x08007cb4   Section        0  fdiv.o(.text)
    .text                                    0x08007d30   Section        0  dadd.o(.text)
    .text                                    0x08007e98   Section        0  dmul.o(.text)
    .text                                    0x08007f68   Section        0  ddiv.o(.text)
    .text                                    0x08008058   Section        0  dscalb.o(.text)
    .text                                    0x08008084   Section        0  ffltui.o(.text)
    .text                                    0x08008094   Section        0  dflti.o(.text)
    .text                                    0x080080bc   Section        0  dfltui.o(.text)
    .text                                    0x080080d8   Section        0  ffixui.o(.text)
    .text                                    0x08008100   Section        0  dfixui.o(.text)
    .text                                    0x0800813c   Section        0  f2d.o(.text)
    .text                                    0x08008164   Section       40  cdcmple.o(.text)
    .text                                    0x0800818c   Section       40  cdrcmple.o(.text)
    .text                                    0x080081b4   Section        0  d2f.o(.text)
    .text                                    0x080081ec   Section       20  cfcmple.o(.text)
    .text                                    0x08008200   Section        0  llshl.o(.text)
    .text                                    0x08008220   Section        0  llushr.o(.text)
    .text                                    0x08008242   Section        0  llsshr.o(.text)
    .text                                    0x08008268   Section        0  ctype_o.o(.text)
    .text                                    0x08008270   Section        0  isspace_o.o(.text)
    .text                                    0x08008284   Section        0  localtime_i.o(.text)
    .text                                    0x080082f8   Section        0  _strtoul.o(.text)
    .text                                    0x080083a0   Section        0  strtod.o(.text)
    _local_sscanf                            0x080083a1   Thumb Code    54  strtod.o(.text)
    .text                                    0x08008444   Section        0  strtol.o(.text)
    .text                                    0x080084b4   Section        0  iusefp.o(.text)
    .text                                    0x080084b4   Section        0  fepilogue.o(.text)
    .text                                    0x08008536   Section        0  depilogue.o(.text)
    .text                                    0x080085f4   Section        0  dsqrt.o(.text)
    .text                                    0x08008698   Section        0  dfixul.o(.text)
    .text                                    0x080086d8   Section       36  init.o(.text)
    .text                                    0x080086fc   Section        0  _chval.o(.text)
    .text                                    0x0800871c   Section        0  scanf_fp.o(.text)
    _fp_value                                0x0800871d   Thumb Code   286  scanf_fp.o(.text)
    .text                                    0x08008a90   Section        0  _sgetc.o(.text)
    .text                                    0x08008ad4   Section        0  dfixi.o(.text)
    .text                                    0x08008b1c   Section        0  llmul.o(.text)
    .text                                    0x08008b98   Section        0  dfltul.o(.text)
    i.ADC_ConversionStop                     0x08008bb4   Section        0  stm32l0xx_hal_adc.o(i.ADC_ConversionStop)
    ADC_ConversionStop                       0x08008bb5   Thumb Code    82  stm32l0xx_hal_adc.o(i.ADC_ConversionStop)
    i.ADC_DelayMicroSecond                   0x08008c08   Section        0  stm32l0xx_hal_adc.o(i.ADC_DelayMicroSecond)
    ADC_DelayMicroSecond                     0x08008c09   Thumb Code    28  stm32l0xx_hal_adc.o(i.ADC_DelayMicroSecond)
    i.ADC_Disable                            0x08008c2c   Section        0  stm32l0xx_hal_adc.o(i.ADC_Disable)
    ADC_Disable                              0x08008c2d   Thumb Code    96  stm32l0xx_hal_adc.o(i.ADC_Disable)
    i.ADC_Enable                             0x08008c8c   Section        0  stm32l0xx_hal_adc.o(i.ADC_Enable)
    ADC_Enable                               0x08008c8d   Thumb Code    96  stm32l0xx_hal_adc.o(i.ADC_Enable)
    i.CreateNodeCmd                          0x08008cf0   Section        0  app_net.o(i.CreateNodeCmd)
    i.Create_Timer                           0x08008dd4   Section        0  app_kernal.o(i.Create_Timer)
    Create_Timer                             0x08008dd5   Thumb Code   150  app_kernal.o(i.Create_Timer)
    i.DMA1_Channel2_3_IRQHandler             0x08008ed0   Section        0  stm32l0xx_it.o(i.DMA1_Channel2_3_IRQHandler)
    i.DMA1_Channel4_5_6_7_IRQHandler         0x08008ee0   Section        0  stm32l0xx_it.o(i.DMA1_Channel4_5_6_7_IRQHandler)
    i.DMA_SetConfig                          0x08008ef8   Section        0  stm32l0xx_hal_dma.o(i.DMA_SetConfig)
    DMA_SetConfig                            0x08008ef9   Thumb Code    44  stm32l0xx_hal_dma.o(i.DMA_SetConfig)
    i.EXTI4_15_IRQHandler                    0x08008f24   Section        0  stm32l0xx_it.o(i.EXTI4_15_IRQHandler)
    i.Error_Handler                          0x08008f3c   Section        0  main.o(i.Error_Handler)
    i.FLASH_SetErrorCode                     0x08008f40   Section        0  stm32l0xx_hal_flash.o(i.FLASH_SetErrorCode)
    FLASH_SetErrorCode                       0x08008f41   Thumb Code   134  stm32l0xx_hal_flash.o(i.FLASH_SetErrorCode)
    i.FLASH_WaitForLastOperation             0x08008fd0   Section        0  stm32l0xx_hal_flash.o(i.FLASH_WaitForLastOperation)
    i.GetCrc16                               0x08009040   Section        0  app_sys.o(i.GetCrc16)
    i.HAL_ADCEx_Calibration_Start            0x0800906c   Section        0  stm32l0xx_hal_adc_ex.o(i.HAL_ADCEx_Calibration_Start)
    i.HAL_ADC_ConfigChannel                  0x08009118   Section        0  stm32l0xx_hal_adc.o(i.HAL_ADC_ConfigChannel)
    i.HAL_ADC_GetState                       0x080091ac   Section        0  stm32l0xx_hal_adc.o(i.HAL_ADC_GetState)
    i.HAL_ADC_GetValue                       0x080091b0   Section        0  stm32l0xx_hal_adc.o(i.HAL_ADC_GetValue)
    i.HAL_ADC_Init                           0x080091b8   Section        0  stm32l0xx_hal_adc.o(i.HAL_ADC_Init)
    i.HAL_ADC_MspInit                        0x08009380   Section        0  adc.o(i.HAL_ADC_MspInit)
    i.HAL_ADC_PollForConversion              0x080093d0   Section        0  stm32l0xx_hal_adc.o(i.HAL_ADC_PollForConversion)
    i.HAL_ADC_Start                          0x08009490   Section        0  stm32l0xx_hal_adc.o(i.HAL_ADC_Start)
    i.HAL_ADC_Stop                           0x080094ec   Section        0  stm32l0xx_hal_adc.o(i.HAL_ADC_Stop)
    i.HAL_DMA_Abort                          0x0800952a   Section        0  stm32l0xx_hal_dma.o(i.HAL_DMA_Abort)
    i.HAL_DMA_Abort_IT                       0x0800956e   Section        0  stm32l0xx_hal_dma.o(i.HAL_DMA_Abort_IT)
    i.HAL_DMA_DeInit                         0x080095bc   Section        0  stm32l0xx_hal_dma.o(i.HAL_DMA_DeInit)
    i.HAL_DMA_GetError                       0x08009624   Section        0  stm32l0xx_hal_dma.o(i.HAL_DMA_GetError)
    i.HAL_DMA_IRQHandler                     0x08009628   Section        0  stm32l0xx_hal_dma.o(i.HAL_DMA_IRQHandler)
    i.HAL_DMA_Init                           0x080096d0   Section        0  stm32l0xx_hal_dma.o(i.HAL_DMA_Init)
    i.HAL_DMA_Start_IT                       0x08009760   Section        0  stm32l0xx_hal_dma.o(i.HAL_DMA_Start_IT)
    i.HAL_Delay                              0x080097c8   Section        0  stm32l0xx_hal.o(i.HAL_Delay)
    i.HAL_FLASHEx_DATAEEPROM_Lock            0x080097ec   Section        0  stm32l0xx_hal_flash_ex.o(i.HAL_FLASHEx_DATAEEPROM_Lock)
    i.HAL_FLASHEx_DATAEEPROM_Program         0x08009800   Section        0  stm32l0xx_hal_flash_ex.o(i.HAL_FLASHEx_DATAEEPROM_Program)
    i.HAL_FLASHEx_DATAEEPROM_Unlock          0x08009854   Section        0  stm32l0xx_hal_flash_ex.o(i.HAL_FLASHEx_DATAEEPROM_Unlock)
    i.HAL_GPIO_DeInit                        0x08009888   Section        0  stm32l0xx_hal_gpio.o(i.HAL_GPIO_DeInit)
    i.HAL_GPIO_EXTI_Callback                 0x08009978   Section        0  app_user.o(i.HAL_GPIO_EXTI_Callback)
    i.HAL_GPIO_EXTI_IRQHandler               0x0800999c   Section        0  stm32l0xx_hal_gpio.o(i.HAL_GPIO_EXTI_IRQHandler)
    i.HAL_GPIO_Init                          0x080099b4   Section        0  stm32l0xx_hal_gpio.o(i.HAL_GPIO_Init)
    i.HAL_GPIO_ReadPin                       0x08009b38   Section        0  stm32l0xx_hal_gpio.o(i.HAL_GPIO_ReadPin)
    i.HAL_GPIO_WritePin                      0x08009b42   Section        0  stm32l0xx_hal_gpio.o(i.HAL_GPIO_WritePin)
    i.HAL_GetTick                            0x08009b50   Section        0  stm32l0xx_hal.o(i.HAL_GetTick)
    i.HAL_I2CEx_ConfigAnalogFilter           0x08009b5c   Section        0  stm32l0xx_hal_i2c_ex.o(i.HAL_I2CEx_ConfigAnalogFilter)
    i.HAL_I2CEx_ConfigDigitalFilter          0x08009ba6   Section        0  stm32l0xx_hal_i2c_ex.o(i.HAL_I2CEx_ConfigDigitalFilter)
    i.HAL_I2C_DeInit                         0x08009bee   Section        0  stm32l0xx_hal_i2c.o(i.HAL_I2C_DeInit)
    i.HAL_I2C_Init                           0x08009c24   Section        0  stm32l0xx_hal_i2c.o(i.HAL_I2C_Init)
    i.HAL_I2C_Mem_Read                       0x08009cd8   Section        0  stm32l0xx_hal_i2c.o(i.HAL_I2C_Mem_Read)
    i.HAL_I2C_Mem_Write                      0x08009e2c   Section        0  stm32l0xx_hal_i2c.o(i.HAL_I2C_Mem_Write)
    i.HAL_I2C_MspDeInit                      0x08009f78   Section        0  i2c.o(i.HAL_I2C_MspDeInit)
    i.HAL_I2C_MspInit                        0x08009fb0   Section        0  i2c.o(i.HAL_I2C_MspInit)
    i.HAL_IWDG_Init                          0x0800a00c   Section        0  stm32l0xx_hal_iwdg.o(i.HAL_IWDG_Init)
    i.HAL_IWDG_Refresh                       0x0800a070   Section        0  stm32l0xx_hal_iwdg.o(i.HAL_IWDG_Refresh)
    i.HAL_IncTick                            0x0800a080   Section        0  stm32l0xx_hal.o(i.HAL_IncTick)
    i.HAL_Init                               0x0800a090   Section        0  stm32l0xx_hal.o(i.HAL_Init)
    i.HAL_InitTick                           0x0800a0b8   Section        0  stm32l0xx_hal.o(i.HAL_InitTick)
    i.HAL_MspInit                            0x0800a0fc   Section        0  stm32l0xx_hal_msp.o(i.HAL_MspInit)
    i.HAL_NVIC_DisableIRQ                    0x0800a114   Section        0  stm32l0xx_hal_cortex.o(i.HAL_NVIC_DisableIRQ)
    i.HAL_NVIC_EnableIRQ                     0x0800a134   Section        0  stm32l0xx_hal_cortex.o(i.HAL_NVIC_EnableIRQ)
    i.HAL_NVIC_SetPriority                   0x0800a14c   Section        0  stm32l0xx_hal_cortex.o(i.HAL_NVIC_SetPriority)
    i.HAL_NVIC_SystemReset                   0x0800a154   Section        0  stm32l0xx_hal_cortex.o(i.HAL_NVIC_SystemReset)
    i.HAL_PWREx_EnableFastWakeUp             0x0800a170   Section        0  stm32l0xx_hal_pwr_ex.o(i.HAL_PWREx_EnableFastWakeUp)
    i.HAL_PWREx_EnableUltraLowPower          0x0800a180   Section        0  stm32l0xx_hal_pwr_ex.o(i.HAL_PWREx_EnableUltraLowPower)
    i.HAL_PWR_EnableBkUpAccess               0x0800a190   Section        0  stm32l0xx_hal_pwr.o(i.HAL_PWR_EnableBkUpAccess)
    i.HAL_PWR_EnterSTOPMode                  0x0800a1a0   Section        0  stm32l0xx_hal_pwr.o(i.HAL_PWR_EnterSTOPMode)
    i.HAL_RCCEx_PeriphCLKConfig              0x0800a204   Section        0  stm32l0xx_hal_rcc_ex.o(i.HAL_RCCEx_PeriphCLKConfig)
    i.HAL_RCC_ClockConfig                    0x0800a37c   Section        0  stm32l0xx_hal_rcc.o(i.HAL_RCC_ClockConfig)
    i.HAL_RCC_GetPCLK1Freq                   0x0800a518   Section        0  stm32l0xx_hal_rcc.o(i.HAL_RCC_GetPCLK1Freq)
    i.HAL_RCC_GetPCLK2Freq                   0x0800a538   Section        0  stm32l0xx_hal_rcc.o(i.HAL_RCC_GetPCLK2Freq)
    i.HAL_RCC_GetSysClockFreq                0x0800a558   Section        0  stm32l0xx_hal_rcc.o(i.HAL_RCC_GetSysClockFreq)
    i.HAL_RCC_OscConfig                      0x0800a5d0   Section        0  stm32l0xx_hal_rcc.o(i.HAL_RCC_OscConfig)
    i.HAL_RTCEx_AlarmBEventCallback          0x0800aa02   Section        0  stm32l0xx_hal_rtc_ex.o(i.HAL_RTCEx_AlarmBEventCallback)
    i.HAL_RTCEx_SetWakeUpTimer_IT            0x0800aa04   Section        0  stm32l0xx_hal_rtc_ex.o(i.HAL_RTCEx_SetWakeUpTimer_IT)
    i.HAL_RTCEx_WakeUpTimerEventCallback     0x0800aafc   Section        0  app_port.o(i.HAL_RTCEx_WakeUpTimerEventCallback)
    i.HAL_RTCEx_WakeUpTimerIRQHandler        0x0800ab08   Section        0  stm32l0xx_hal_rtc_ex.o(i.HAL_RTCEx_WakeUpTimerIRQHandler)
    i.HAL_RTC_AlarmAEventCallback            0x0800ab40   Section        0  app_port.o(i.HAL_RTC_AlarmAEventCallback)
    i.HAL_RTC_AlarmIRQHandler                0x0800abb8   Section        0  stm32l0xx_hal_rtc.o(i.HAL_RTC_AlarmIRQHandler)
    i.HAL_RTC_DeactivateAlarm                0x0800ac18   Section        0  stm32l0xx_hal_rtc.o(i.HAL_RTC_DeactivateAlarm)
    i.HAL_RTC_GetAlarm                       0x0800acd0   Section        0  stm32l0xx_hal_rtc.o(i.HAL_RTC_GetAlarm)
    i.HAL_RTC_GetDate                        0x0800ad5c   Section        0  stm32l0xx_hal_rtc.o(i.HAL_RTC_GetDate)
    i.HAL_RTC_GetTime                        0x0800ada0   Section        0  stm32l0xx_hal_rtc.o(i.HAL_RTC_GetTime)
    i.HAL_RTC_Init                           0x0800adfc   Section        0  stm32l0xx_hal_rtc.o(i.HAL_RTC_Init)
    i.HAL_RTC_MspInit                        0x0800aeb8   Section        0  rtc.o(i.HAL_RTC_MspInit)
    i.HAL_RTC_SetAlarm_IT                    0x0800aee8   Section        0  stm32l0xx_hal_rtc.o(i.HAL_RTC_SetAlarm_IT)
    i.HAL_RTC_SetDate                        0x0800b078   Section        0  stm32l0xx_hal_rtc.o(i.HAL_RTC_SetDate)
    i.HAL_RTC_SetTime                        0x0800b13c   Section        0  stm32l0xx_hal_rtc.o(i.HAL_RTC_SetTime)
    i.HAL_RTC_WaitForSynchro                 0x0800b224   Section        0  stm32l0xx_hal_rtc.o(i.HAL_RTC_WaitForSynchro)
    i.HAL_ResumeTick                         0x0800b258   Section        0  stm32l0xx_hal.o(i.HAL_ResumeTick)
    i.HAL_SYSTICK_Config                     0x0800b268   Section        0  stm32l0xx_hal_cortex.o(i.HAL_SYSTICK_Config)
    i.HAL_SuspendTick                        0x0800b298   Section        0  stm32l0xx_hal.o(i.HAL_SuspendTick)
    i.HAL_UARTEx_RxEventCallback             0x0800b2a8   Section        0  stm32l0xx_hal_uart.o(i.HAL_UARTEx_RxEventCallback)
    i.HAL_UARTEx_WakeupCallback              0x0800b2aa   Section        0  stm32l0xx_hal_uart_ex.o(i.HAL_UARTEx_WakeupCallback)
    i.HAL_UART_DMAStop                       0x0800b2ac   Section        0  stm32l0xx_hal_uart.o(i.HAL_UART_DMAStop)
    i.HAL_UART_DeInit                        0x0800b32a   Section        0  stm32l0xx_hal_uart.o(i.HAL_UART_DeInit)
    i.HAL_UART_ErrorCallback                 0x0800b368   Section        0  app_port.o(i.HAL_UART_ErrorCallback)
    i.HAL_UART_IRQHandler                    0x0800b430   Section        0  stm32l0xx_hal_uart.o(i.HAL_UART_IRQHandler)
    i.HAL_UART_Init                          0x0800b650   Section        0  stm32l0xx_hal_uart.o(i.HAL_UART_Init)
    i.HAL_UART_MspDeInit                     0x0800b6bc   Section        0  usart.o(i.HAL_UART_MspDeInit)
    i.HAL_UART_MspInit                       0x0800b74c   Section        0  usart.o(i.HAL_UART_MspInit)
    i.HAL_UART_Receive_DMA                   0x0800b8cc   Section        0  stm32l0xx_hal_uart.o(i.HAL_UART_Receive_DMA)
    i.HAL_UART_RxCpltCallback                0x0800b92c   Section        0  app_port.o(i.HAL_UART_RxCpltCallback)
    i.HAL_UART_RxHalfCpltCallback            0x0800b9ac   Section        0  stm32l0xx_hal_uart.o(i.HAL_UART_RxHalfCpltCallback)
    i.HAL_UART_Transmit                      0x0800b9ae   Section        0  stm32l0xx_hal_uart.o(i.HAL_UART_Transmit)
    i.HAL_UART_TxCpltCallback                0x0800ba80   Section        0  stm32l0xx_hal_uart.o(i.HAL_UART_TxCpltCallback)
    i.HardFault_Handler                      0x0800ba84   Section        0  stm32l0xx_it.o(i.HardFault_Handler)
    i.I2C_Flush_TXDR                         0x0800ba98   Section        0  stm32l0xx_hal_i2c.o(i.I2C_Flush_TXDR)
    I2C_Flush_TXDR                           0x0800ba99   Thumb Code    34  stm32l0xx_hal_i2c.o(i.I2C_Flush_TXDR)
    i.I2C_IsAcknowledgeFailed                0x0800babc   Section        0  stm32l0xx_hal_i2c.o(i.I2C_IsAcknowledgeFailed)
    I2C_IsAcknowledgeFailed                  0x0800babd   Thumb Code   108  stm32l0xx_hal_i2c.o(i.I2C_IsAcknowledgeFailed)
    i.I2C_RequestMemoryRead                  0x0800bb2c   Section        0  stm32l0xx_hal_i2c.o(i.I2C_RequestMemoryRead)
    I2C_RequestMemoryRead                    0x0800bb2d   Thumb Code    92  stm32l0xx_hal_i2c.o(i.I2C_RequestMemoryRead)
    i.I2C_RequestMemoryWrite                 0x0800bb8c   Section        0  stm32l0xx_hal_i2c.o(i.I2C_RequestMemoryWrite)
    I2C_RequestMemoryWrite                   0x0800bb8d   Thumb Code    92  stm32l0xx_hal_i2c.o(i.I2C_RequestMemoryWrite)
    i.I2C_TransferConfig                     0x0800bbec   Section        0  stm32l0xx_hal_i2c.o(i.I2C_TransferConfig)
    I2C_TransferConfig                       0x0800bbed   Thumb Code    34  stm32l0xx_hal_i2c.o(i.I2C_TransferConfig)
    i.I2C_WaitOnFlagUntilTimeout             0x0800bc14   Section        0  stm32l0xx_hal_i2c.o(i.I2C_WaitOnFlagUntilTimeout)
    I2C_WaitOnFlagUntilTimeout               0x0800bc15   Thumb Code    78  stm32l0xx_hal_i2c.o(i.I2C_WaitOnFlagUntilTimeout)
    i.I2C_WaitOnSTOPFlagUntilTimeout         0x0800bc62   Section        0  stm32l0xx_hal_i2c.o(i.I2C_WaitOnSTOPFlagUntilTimeout)
    I2C_WaitOnSTOPFlagUntilTimeout           0x0800bc63   Thumb Code    76  stm32l0xx_hal_i2c.o(i.I2C_WaitOnSTOPFlagUntilTimeout)
    i.I2C_WaitOnTXISFlagUntilTimeout         0x0800bcae   Section        0  stm32l0xx_hal_i2c.o(i.I2C_WaitOnTXISFlagUntilTimeout)
    I2C_WaitOnTXISFlagUntilTimeout           0x0800bcaf   Thumb Code    80  stm32l0xx_hal_i2c.o(i.I2C_WaitOnTXISFlagUntilTimeout)
    i.LPUART1_IRQHandler                     0x0800bd00   Section        0  stm32l0xx_it.o(i.LPUART1_IRQHandler)
    i.LogMessage                             0x0800bd14   Section        0  app_sys.o(i.LogMessage)
    i.LogMessageWL                           0x0800bd3c   Section        0  app_sys.o(i.LogMessageWL)
    i.LogPrintf                              0x0800bd58   Section        0  app_sys.o(i.LogPrintf)
    i.MX_ADC_Init                            0x0800bdc8   Section        0  adc.o(i.MX_ADC_Init)
    i.MX_DMA_Init                            0x0800be38   Section        0  dma.o(i.MX_DMA_Init)
    i.MX_GPIO_Init                           0x0800be70   Section        0  gpio.o(i.MX_GPIO_Init)
    i.MX_I2C1_Init                           0x0800bf7c   Section        0  i2c.o(i.MX_I2C1_Init)
    i.MX_IWDG_Init                           0x0800bfd4   Section        0  iwdg.o(i.MX_IWDG_Init)
    i.MX_LPUART1_UART_Init                   0x0800c000   Section        0  usart.o(i.MX_LPUART1_UART_Init)
    i.MX_RTC_Init                            0x0800c038   Section        0  rtc.o(i.MX_RTC_Init)
    i.MX_USART1_UART_Init                    0x0800c07c   Section        0  usart.o(i.MX_USART1_UART_Init)
    i.MX_USART2_UART_Init                    0x0800c0b4   Section        0  usart.o(i.MX_USART2_UART_Init)
    i.N58_ChangeInvokeStatus                 0x0800c0ec   Section        0  app_net.o(i.N58_ChangeInvokeStatus)
    i.NMI_Handler                            0x0800c108   Section        0  stm32l0xx_it.o(i.NMI_Handler)
    i.PendSV_Handler                         0x0800c10a   Section        0  stm32l0xx_it.o(i.PendSV_Handler)
    i.RTC_Bcd2ToByte                         0x0800c10c   Section        0  stm32l0xx_hal_rtc.o(i.RTC_Bcd2ToByte)
    i.RTC_ByteToBcd2                         0x0800c11c   Section        0  stm32l0xx_hal_rtc.o(i.RTC_ByteToBcd2)
    i.RTC_EnterInitMode                      0x0800c134   Section        0  stm32l0xx_hal_rtc.o(i.RTC_EnterInitMode)
    i.RTC_IRQHandler                         0x0800c16c   Section        0  stm32l0xx_it.o(i.RTC_IRQHandler)
    i.SVC_Handler                            0x0800c180   Section        0  stm32l0xx_it.o(i.SVC_Handler)
    i.SysTick_Handler                        0x0800c182   Section        0  stm32l0xx_it.o(i.SysTick_Handler)
    i.SystemClock_Config                     0x0800c18c   Section        0  main.o(i.SystemClock_Config)
    i.SystemInit                             0x0800c21c   Section        0  system_stm32l0xx.o(i.SystemInit)
    i.UART_AdvFeatureConfig                  0x0800c274   Section        0  stm32l0xx_hal_uart.o(i.UART_AdvFeatureConfig)
    i.UART_CheckIdleState                    0x0800c340   Section        0  stm32l0xx_hal_uart.o(i.UART_CheckIdleState)
    i.UART_DMAAbortOnError                   0x0800c3a4   Section        0  stm32l0xx_hal_uart.o(i.UART_DMAAbortOnError)
    UART_DMAAbortOnError                     0x0800c3a5   Thumb Code    20  stm32l0xx_hal_uart.o(i.UART_DMAAbortOnError)
    i.UART_DMAError                          0x0800c3b8   Section        0  stm32l0xx_hal_uart.o(i.UART_DMAError)
    UART_DMAError                            0x0800c3b9   Thumb Code    76  stm32l0xx_hal_uart.o(i.UART_DMAError)
    i.UART_DMAReceiveCplt                    0x0800c404   Section        0  stm32l0xx_hal_uart.o(i.UART_DMAReceiveCplt)
    UART_DMAReceiveCplt                      0x0800c405   Thumb Code    94  stm32l0xx_hal_uart.o(i.UART_DMAReceiveCplt)
    i.UART_DMARxHalfCplt                     0x0800c462   Section        0  stm32l0xx_hal_uart.o(i.UART_DMARxHalfCplt)
    UART_DMARxHalfCplt                       0x0800c463   Thumb Code    28  stm32l0xx_hal_uart.o(i.UART_DMARxHalfCplt)
    i.UART_EndRxTransfer                     0x0800c47e   Section        0  stm32l0xx_hal_uart.o(i.UART_EndRxTransfer)
    UART_EndRxTransfer                       0x0800c47f   Thumb Code    50  stm32l0xx_hal_uart.o(i.UART_EndRxTransfer)
    i.UART_EndTxTransfer                     0x0800c4b0   Section        0  stm32l0xx_hal_uart.o(i.UART_EndTxTransfer)
    UART_EndTxTransfer                       0x0800c4b1   Thumb Code    16  stm32l0xx_hal_uart.o(i.UART_EndTxTransfer)
    i.UART_SetConfig                         0x0800c4c0   Section        0  stm32l0xx_hal_uart.o(i.UART_SetConfig)
    i.UART_Start_Receive_DMA                 0x0800c6d4   Section        0  stm32l0xx_hal_uart.o(i.UART_Start_Receive_DMA)
    i.UART_WaitOnFlagUntilTimeout            0x0800c760   Section        0  stm32l0xx_hal_uart.o(i.UART_WaitOnFlagUntilTimeout)
    i.USART1_IRQHandler                      0x0800c800   Section        0  stm32l0xx_it.o(i.USART1_IRQHandler)
    i.USART2_IRQHandler                      0x0800c814   Section        0  stm32l0xx_it.o(i.USART2_IRQHandler)
    i.UsartInterruptHandler                  0x0800c828   Section        0  app_port.o(i.UsartInterruptHandler)
    i.UsartReceiveDataPost                   0x0800c83c   Section        0  app_port.o(i.UsartReceiveDataPost)
    UsartReceiveDataPost                     0x0800c83d   Thumb Code    24  app_port.o(i.UsartReceiveDataPost)
    i.XINGSHENG_ID_ASCII_Decoding            0x0800c854   Section        0  app_sn.o(i.XINGSHENG_ID_ASCII_Decoding)
    i.XINGSHENG_ID_Decoder                   0x0800c87a   Section        0  app_sn.o(i.XINGSHENG_ID_Decoder)
    i.__0sprintf                             0x0800c900   Section        0  printfa.o(i.__0sprintf)
    i.__0vsprintf                            0x0800c928   Section        0  printfa.o(i.__0vsprintf)
    i.__ARM_clz                              0x0800c94c   Section        0  depilogue.o(i.__ARM_clz)
    i.__ARM_common_ll_muluu                  0x0800c97a   Section        0  stm32l0xx_hal_rcc.o(i.__ARM_common_ll_muluu)
    i.__ARM_common_switch8                   0x0800c9aa   Section        0  app_net.o(i.__ARM_common_switch8)
    i.__ARM_fpclassify                       0x0800c9c4   Section        0  fpclassify.o(i.__ARM_fpclassify)
    i.__NVIC_SetPriority                     0x0800c9f0   Section        0  stm32l0xx_hal_cortex.o(i.__NVIC_SetPriority)
    __NVIC_SetPriority                       0x0800c9f1   Thumb Code    60  stm32l0xx_hal_cortex.o(i.__NVIC_SetPriority)
    i.__aeabi_errno_addr                     0x0800ca34   Section        0  errno.o(i.__aeabi_errno_addr)
    i.__ieee754_rem_pio2                     0x0800ca3c   Section        0  rred.o(i.__ieee754_rem_pio2)
    i.__kernel_cos                           0x0800cdd8   Section        0  cos_i.o(i.__kernel_cos)
    i.__kernel_poly                          0x0800cecc   Section        0  poly.o(i.__kernel_poly)
    i.__kernel_sin                           0x0800cf78   Section        0  sin_i.o(i.__kernel_sin)
    i.__mathlib_dbl_divzero                  0x0800d064   Section        0  dunder.o(i.__mathlib_dbl_divzero)
    i.__mathlib_dbl_infnan                   0x0800d078   Section        0  dunder.o(i.__mathlib_dbl_infnan)
    i.__mathlib_dbl_infnan2                  0x0800d082   Section        0  dunder.o(i.__mathlib_dbl_infnan2)
    i.__mathlib_dbl_invalid                  0x0800d08a   Section        0  dunder.o(i.__mathlib_dbl_invalid)
    i.__mathlib_dbl_overflow                 0x0800d09c   Section        0  dunder.o(i.__mathlib_dbl_overflow)
    i.__mathlib_dbl_underflow                0x0800d0b0   Section        0  dunder.o(i.__mathlib_dbl_underflow)
    i.__read_errno                           0x0800d0c4   Section        0  errno.o(i.__read_errno)
    i.__scatterload_copy                     0x0800d0d0   Section       14  handlers.o(i.__scatterload_copy)
    i.__scatterload_null                     0x0800d0de   Section        2  handlers.o(i.__scatterload_null)
    i.__scatterload_zeroinit                 0x0800d0e0   Section       14  handlers.o(i.__scatterload_zeroinit)
    i.__set_errno                            0x0800d0f0   Section        0  errno.o(i.__set_errno)
    i._fp_digits                             0x0800d0fc   Section        0  printfa.o(i._fp_digits)
    _fp_digits                               0x0800d0fd   Thumb Code   344  printfa.o(i._fp_digits)
    i._is_digit                              0x0800d270   Section        0  scanf_fp.o(i._is_digit)
    i._printf_core                           0x0800d280   Section        0  printfa.o(i._printf_core)
    _printf_core                             0x0800d281   Thumb Code  1760  printfa.o(i._printf_core)
    i._printf_post_padding                   0x0800d970   Section        0  printfa.o(i._printf_post_padding)
    _printf_post_padding                     0x0800d971   Thumb Code    32  printfa.o(i._printf_post_padding)
    i._printf_pre_padding                    0x0800d990   Section        0  printfa.o(i._printf_pre_padding)
    _printf_pre_padding                      0x0800d991   Thumb Code    44  printfa.o(i._printf_pre_padding)
    i._sputc                                 0x0800d9bc   Section        0  printfa.o(i._sputc)
    _sputc                                   0x0800d9bd   Thumb Code    10  printfa.o(i._sputc)
    i.addNewGPSInfo                          0x0800d9c8   Section        0  app_gps.o(i.addNewGPSInfo)
    i.alarmRequestClear                      0x0800da68   Section        0  app_task.o(i.alarmRequestClear)
    i.alarmRequestSet                        0x0800da78   Section        0  app_task.o(i.alarmRequestSet)
    i.alarmUploadRequest                     0x0800da88   Section        0  app_task.o(i.alarmUploadRequest)
    i.appBleCRecv                            0x0800dccc   Section        0  app_ble.o(i.appBleCRecv)
    i.appBleInfoReset                        0x0800dd64   Section        0  app_ble.o(i.appBleInfoReset)
    i.appBlePRecv                            0x0800dd74   Section        0  app_ble.o(i.appBlePRecv)
    i.appBleSendData                         0x0800de04   Section        0  app_ble.o(i.appBleSendData)
    i.appUartConfig                          0x0800de44   Section        0  app_port.o(i.appUartConfig)
    i.appUartSend                            0x0800df84   Section        0  app_port.o(i.appUartSend)
    i.asciiToHex                             0x0800df98   Section        0  app_sys.o(i.asciiToHex)
    asciiToHex                               0x0800df99   Thumb Code    42  app_sys.o(i.asciiToHex)
    i.asin                                   0x0800dfc4   Section        0  asin.o(i.asin)
    i.atCmdCmGetParser                       0x0800e238   Section        0  app_atcmd.o(i.atCmdCmGetParser)
    i.atCmdDebugLevelParser                  0x0800e264   Section        0  app_atcmd.o(i.atCmdDebugLevelParser)
    i.atCmdDebugParase                       0x0800e2a0   Section        0  app_atcmd.o(i.atCmdDebugParase)
    atCmdDebugParase                         0x0800e2a1   Thumb Code   358  app_atcmd.o(i.atCmdDebugParase)
    i.atCmdFMPCnmeaParase                    0x0800e528   Section        0  app_atcmd.o(i.atCmdFMPCnmeaParase)
    atCmdFMPCnmeaParase                      0x0800e529   Thumb Code   100  app_atcmd.o(i.atCmdFMPCnmeaParase)
    i.atCmdFmpcAdccalParase                  0x0800e5b4   Section        0  app_atcmd.o(i.atCmdFmpcAdccalParase)
    atCmdFmpcAdccalParase                    0x0800e5b5   Thumb Code   116  app_atcmd.o(i.atCmdFmpcAdccalParase)
    i.atCmdFmpcAllParse                      0x0800e66c   Section        0  app_atcmd.o(i.atCmdFmpcAllParse)
    i.atCmdFmpcCMParse                       0x0800e68c   Section        0  app_atcmd.o(i.atCmdFmpcCMParse)
    i.atCmdFmpcChkpParse                     0x0800e6c0   Section        0  app_atcmd.o(i.atCmdFmpcChkpParse)
    i.atCmdFmpcIMSIParse                     0x0800e6f8   Section        0  app_atcmd.o(i.atCmdFmpcIMSIParse)
    i.atCmdFmpcIMSIParseRespon               0x0800e72c   Section        0  app_atcmd.o(i.atCmdFmpcIMSIParseRespon)
    atCmdFmpcIMSIParseRespon                 0x0800e72d   Thumb Code    28  app_atcmd.o(i.atCmdFmpcIMSIParseRespon)
    i.atCmdIMEIParse                         0x0800e770   Section        0  app_atcmd.o(i.atCmdIMEIParse)
    i.atCmdIMEIParseRespon                   0x0800e7a4   Section        0  app_atcmd.o(i.atCmdIMEIParseRespon)
    atCmdIMEIParseRespon                     0x0800e7a5   Thumb Code    24  app_atcmd.o(i.atCmdIMEIParseRespon)
    i.atCmdParaseFunction                    0x0800e7d8   Section        0  app_atcmd.o(i.atCmdParaseFunction)
    i.atCmdZTSNParse                         0x0800eae0   Section        0  app_atcmd.o(i.atCmdZTSNParse)
    i.atof                                   0x0800eb3c   Section        0  atof.o(i.atof)
    i.autoSleepTask                          0x0800eb68   Section        0  app_task.o(i.autoSleepTask)
    i.calculateDistanceOfPoint               0x0800ec68   Section        0  app_gpsarithmetic.o(i.calculateDistanceOfPoint)
    i.calculateTheDistanceBetweenTwoPonits   0x0800ed10   Section        0  app_gpsarithmetic.o(i.calculateTheDistanceBetweenTwoPonits)
    i.calculateTheGPSCornerPoint             0x0800ee1c   Section        0  app_gpsarithmetic.o(i.calculateTheGPSCornerPoint)
    i.changeByteArrayToHexString             0x0800ef4c   Section        0  app_sys.o(i.changeByteArrayToHexString)
    i.changeHexStringToByteArray             0x0800ef88   Section        0  app_sys.o(i.changeHexStringToByteArray)
    i.changeHexStringToByteArray_10in        0x0800efd0   Section        0  app_sys.o(i.changeHexStringToByteArray_10in)
    i.changeUTCTimeToLocalTime               0x0800f01c   Section        0  app_sys.o(i.changeUTCTimeToLocalTime)
    i.charstrToHexValue                      0x0800f16c   Section        0  app_nmea.o(i.charstrToHexValue)
    i.clearHbtTimer                          0x0800f200   Section        0  app_serverprotocol.o(i.clearHbtTimer)
    i.clearInstrucionRequest                 0x0800f220   Section        0  app_atcmd.o(i.clearInstrucionRequest)
    i.closeModuleGPS                         0x0800f230   Section        0  app_net.o(i.closeModuleGPS)
    i.compress                               0x0800f240   Section        0  app_sn.o(i.compress)
    compress                                 0x0800f241   Thumb Code    42  app_sn.o(i.compress)
    i.cos                                    0x0800f26c   Section        0  cos.o(i.cos)
    i.createProtocol16                       0x0800f304   Section        0  app_serverprotocol.o(i.createProtocol16)
    i.createProtocol19                       0x0800f3b8   Section        0  app_serverprotocol.o(i.createProtocol19)
    i.createProtocol62                       0x0800f474   Section        0  app_serverprotocol.o(i.createProtocol62)
    i.createProtocolF1                       0x0800f508   Section        0  app_serverprotocol.o(i.createProtocolF1)
    i.createProtocolF3                       0x0800f558   Section        0  app_serverprotocol.o(i.createProtocolF3)
    i.createProtocolHead                     0x0800f650   Section        0  app_serverprotocol.o(i.createProtocolHead)
    createProtocolHead                       0x0800f651   Thumb Code    20  app_serverprotocol.o(i.createProtocolHead)
    i.createProtocolSerial                   0x0800f664   Section        0  app_serverprotocol.o(i.createProtocolSerial)
    createProtocolSerial                     0x0800f665   Thumb Code    10  app_serverprotocol.o(i.createProtocolSerial)
    i.createProtocolTail                     0x0800f674   Section        0  app_serverprotocol.o(i.createProtocolTail)
    createProtocolTail                       0x0800f675   Thumb Code    54  app_serverprotocol.o(i.createProtocolTail)
    i.createProtocolTail_7979                0x0800f6aa   Section        0  app_serverprotocol.o(i.createProtocolTail_7979)
    createProtocolTail_7979                  0x0800f6ab   Thumb Code    64  app_serverprotocol.o(i.createProtocolTail_7979)
    i.createProtocol_01                      0x0800f6ea   Section        0  app_serverprotocol.o(i.createProtocol_01)
    i.createProtocol_12                      0x0800f724   Section        0  app_serverprotocol.o(i.createProtocol_12)
    i.createProtocol_13                      0x0800f7a0   Section        0  app_serverprotocol.o(i.createProtocol_13)
    i.createProtocol_21                      0x0800f85c   Section        0  app_serverprotocol.o(i.createProtocol_21)
    i.createProtocol_8A                      0x0800f8a8   Section        0  app_serverprotocol.o(i.createProtocol_8A)
    i.createSystemTask                       0x0800f8ca   Section        0  app_kernal.o(i.createSystemTask)
    i.csqRequest                             0x0800f8da   Section        0  app_net.o(i.csqRequest)
    i.decryptSN                              0x0800f8e8   Section        0  app_sn.o(i.decryptSN)
    i.deleteMessage                          0x0800f98c   Section        0  app_net.o(i.deleteMessage)
    i.disPlaySystemTime                      0x0800f99c   Section        0  app_port.o(i.disPlaySystemTime)
    i.distinguishOK                          0x0800fa10   Section        0  app_sys.o(i.distinguishOK)
    i.do123Instruction                       0x0800fa24   Section        0  app_instructioncmd.o(i.do123Instruction)
    i.doACCCTLGNSSInstrucion                 0x0800fae4   Section        0  app_instructioncmd.o(i.doACCCTLGNSSInstrucion)
    i.doAPNInstruction                       0x0800fc04   Section        0  app_instructioncmd.o(i.doAPNInstruction)
    i.doAdccalInstrucion                     0x0800fd3c   Section        0  app_instructioncmd.o(i.doAdccalInstrucion)
    i.doAlarmModeInstrucion                  0x0800fe4c   Section        0  app_instructioncmd.o(i.doAlarmModeInstrucion)
    i.doAnswerInstrucion                     0x0800ffbc   Section        0  app_instructioncmd.o(i.doAnswerInstrucion)
    i.doBFInstruction                        0x08010084   Section        0  app_instructioncmd.o(i.doBFInstruction)
    i.doCFInstruction                        0x080100b8   Section        0  app_instructioncmd.o(i.doCFInstruction)
    i.doDebugInstrucion                      0x080100ec   Section        0  app_instructioncmd.o(i.doDebugInstrucion)
    i.doFactoryInstrucion                    0x08010428   Section        0  app_instructioncmd.o(i.doFactoryInstrucion)
    i.doFactoryTestInstruction               0x080104bc   Section        0  app_instructioncmd.o(i.doFactoryTestInstruction)
    i.doFenceInstrucion                      0x08010694   Section        0  app_instructioncmd.o(i.doFenceInstrucion)
    i.doHbtInstruction                       0x08010730   Section        0  app_instructioncmd.o(i.doHbtInstruction)
    i.doJTCYCLEInstrucion                    0x080107f8   Section        0  app_instructioncmd.o(i.doJTCYCLEInstrucion)
    i.doJtInstruction                        0x08010910   Section        0  app_instructioncmd.o(i.doJtInstruction)
    i.doLEDInstruction                       0x08010a34   Section        0  app_instructioncmd.o(i.doLEDInstruction)
    i.doLOWWInstruction                      0x08010ac4   Section        0  app_instructioncmd.o(i.doLOWWInstruction)
    i.doModeInstruction                      0x08010b8c   Section        0  app_instructioncmd.o(i.doModeInstruction)
    i.doPOITYPEInstruction                   0x08010fb8   Section        0  app_instructioncmd.o(i.doPOITYPEInstruction)
    i.doParamInstruction                     0x080110e8   Section        0  app_instructioncmd.o(i.doParamInstruction)
    i.doPdopInstrucion                       0x0801135c   Section        0  app_instructioncmd.o(i.doPdopInstrucion)
    i.doPoitypeRequest                       0x08011408   Section        0  app_task.o(i.doPoitypeRequest)
    doPoitypeRequest                         0x08011409   Thumb Code    82  app_task.o(i.doPoitypeRequest)
    i.doResetInstruction                     0x08011478   Section        0  app_instructioncmd.o(i.doResetInstruction)
    i.doSNInstruction                        0x080114e0   Section        0  app_instructioncmd.o(i.doSNInstruction)
    i.doServerInstruction                    0x08011590   Section        0  app_instructioncmd.o(i.doServerInstruction)
    i.doSetblemacInstrucion                  0x08011608   Section        0  app_instructioncmd.o(i.doSetblemacInstrucion)
    i.doSmsreplyInstrucion                   0x0801177c   Section        0  app_instructioncmd.o(i.doSmsreplyInstrucion)
    i.doStatusInstruction                    0x08011824   Section        0  app_instructioncmd.o(i.doStatusInstruction)
    i.doTTSInstruction                       0x08011984   Section        0  app_instructioncmd.o(i.doTTSInstruction)
    i.doTurnAlgInstrucion                    0x08011a68   Section        0  app_instructioncmd.o(i.doTurnAlgInstrucion)
    i.doUPSInstruction                       0x08011b2c   Section        0  app_instructioncmd.o(i.doUPSInstruction)
    i.doUTCInstruction                       0x08011be0   Section        0  app_instructioncmd.o(i.doUTCInstruction)
    i.doVersionInstruction                   0x08011cc4   Section        0  app_instructioncmd.o(i.doVersionInstruction)
    i.doinstruction                          0x08011d2c   Section        0  app_atcmd.o(i.doinstruction)
    doinstruction                            0x08011d2d   Thumb Code   480  app_atcmd.o(i.doinstruction)
    i.dorequestSend123                       0x08011f34   Section        0  app_instructioncmd.o(i.dorequestSend123)
    i.eepromWriteByte                        0x08011fe8   Section        0  app_param.o(i.eepromWriteByte)
    eepromWriteByte                          0x08011fe9   Thumb Code    48  app_param.o(i.eepromWriteByte)
    i.eepromWriteTwoBytes                    0x0801201c   Section        0  app_param.o(i.eepromWriteTwoBytes)
    eepromWriteTwoBytes                      0x0801201d   Thumb Code    48  app_param.o(i.eepromWriteTwoBytes)
    i.eepromWriteWord                        0x08012050   Section        0  app_param.o(i.eepromWriteWord)
    eepromWriteWord                          0x08012051   Thumb Code    48  app_param.o(i.eepromWriteWord)
    i.encrypt                                0x08012084   Section        0  app_sn.o(i.encrypt)
    encrypt                                  0x08012085   Thumb Code   304  app_sn.o(i.encrypt)
    i.exitNetCtl                             0x080121c4   Section        0  app_task.o(i.exitNetCtl)
    i.expand                                 0x08012214   Section        0  app_sn.o(i.expand)
    expand                                   0x08012215   Thumb Code    42  app_sn.o(i.expand)
    i.feedWdt                                0x08012240   Section        0  app_port.o(i.feedWdt)
    i.free                                   0x08012250   Section        0  malloc.o(i.free)
    i.getBatVoltage                          0x080122a4   Section        0  app_task.o(i.getBatVoltage)
    i.getBatteryLevel                        0x080122f4   Section        0  app_serverprotocol.o(i.getBatteryLevel)
    getBatteryLevel                          0x080122f5   Thumb Code    64  app_serverprotocol.o(i.getBatteryLevel)
    i.getCharIndex                           0x08012350   Section        0  app_sys.o(i.getCharIndex)
    i.getCharIndexWithNum                    0x0801236a   Section        0  app_sys.o(i.getCharIndexWithNum)
    i.getCurrentDateTimeOfSec                0x08012392   Section        0  app_port.o(i.getCurrentDateTimeOfSec)
    i.getCurrentGPSInfo                      0x080123d8   Section        0  app_gps.o(i.getCurrentGPSInfo)
    i.getGSPfifo                             0x080123e0   Section        0  app_gps.o(i.getGSPfifo)
    i.getLastFixedGPSInfo                    0x080123e8   Section        0  app_gps.o(i.getLastFixedGPSInfo)
    i.getModuleICCID                         0x080123f0   Section        0  app_net.o(i.getModuleICCID)
    i.getModuleIMEI                          0x080123f8   Section        0  app_net.o(i.getModuleIMEI)
    i.getModuleIMSI                          0x08012400   Section        0  app_net.o(i.getModuleIMSI)
    i.getModuleRssi                          0x08012408   Section        0  app_net.o(i.getModuleRssi)
    i.getRtcDateTime                         0x08012414   Section        0  app_port.o(i.getRtcDateTime)
    i.getTerminalAccState                    0x0801246c   Section        0  app_sys.o(i.getTerminalAccState)
    i.getTerminalChargeState                 0x0801247c   Section        0  app_sys.o(i.getTerminalChargeState)
    i.getVoltageAdcValue                     0x0801248c   Section        0  app_port.o(i.getVoltageAdcValue)
    i.gpsChangeFsmState                      0x080124c4   Section        0  app_task.o(i.gpsChangeFsmState)
    i.gpsClearCurrentGPSInfo                 0x080124d0   Section        0  app_gps.o(i.gpsClearCurrentGPSInfo)
    i.gpsFilter                              0x080124f8   Section        0  app_gps.o(i.gpsFilter)
    i.gpsIsRun                               0x08012540   Section        0  app_gpsrestore.o(i.gpsIsRun)
    i.gpsLedTask                             0x08012554   Section        0  app_task.o(i.gpsLedTask)
    gpsLedTask                               0x08012555   Thumb Code    76  app_task.o(i.gpsLedTask)
    i.gpsNoRestoreFileToRead                 0x080125b0   Section        0  app_gpsrestore.o(i.gpsNoRestoreFileToRead)
    i.gpsOutputCheckTask                     0x080125bc   Section        0  app_task.o(i.gpsOutputCheckTask)
    i.gpsRequestClear                        0x08012618   Section        0  app_task.o(i.gpsRequestClear)
    i.gpsRequestClose                        0x0801265c   Section        0  app_task.o(i.gpsRequestClose)
    gpsRequestClose                          0x0801265d   Thumb Code    46  app_task.o(i.gpsRequestClose)
    i.gpsRequestGet                          0x080126b0   Section        0  app_task.o(i.gpsRequestGet)
    i.gpsRequestOpen                         0x080126c0   Section        0  app_task.o(i.gpsRequestOpen)
    gpsRequestOpen                           0x080126c1   Thumb Code    76  app_task.o(i.gpsRequestOpen)
    i.gpsRequestSet                          0x08012760   Section        0  app_task.o(i.gpsRequestSet)
    i.gpsRequestTask                         0x080127a0   Section        0  app_task.o(i.gpsRequestTask)
    i.gpsRestoreDataSend                     0x08012848   Section        0  app_serverprotocol.o(i.gpsRestoreDataSend)
    i.gpsRestoreWriteData                    0x08012940   Section        0  app_gpsrestore.o(i.gpsRestoreWriteData)
    i.gpsStartBD                             0x080129ac   Section        0  app_task.o(i.gpsStartBD)
    gpsStartBD                               0x080129ad   Thumb Code    12  app_task.o(i.gpsStartBD)
    i.gpsUpdateRestoreFileNameAndTotalSize   0x080129bc   Section        0  app_gpsrestore.o(i.gpsUpdateRestoreFileNameAndTotalSize)
    i.gpsUploadPointToServer                 0x080129e4   Section        0  app_gpsarithmetic.o(i.gpsUploadPointToServer)
    i.gpsUplodOnePointTask                   0x08012a74   Section        0  app_task.o(i.gpsUplodOnePointTask)
    i.gsensorConfig                          0x08012aec   Section        0  app_port.o(i.gsensorConfig)
    i.gsensorInterrupt                       0x08012b78   Section        0  app_port.o(i.gsensorInterrupt)
    i.gsensorIntervalCheck                   0x08012b88   Section        0  app_task.o(i.gsensorIntervalCheck)
    i.gsensorTapTask                         0x08012c4c   Section        0  app_task.o(i.gsensorTapTask)
    i.hearbeatRequest                        0x08012dc4   Section        0  app_task.o(i.hearbeatRequest)
    i.initLastPoint                          0x08012e4c   Section        0  app_gpsarithmetic.o(i.initLastPoint)
    i.instructionParase                      0x08012e9c   Section        0  app_atcmd.o(i.instructionParase)
    i.isModulePowerOn                        0x08012eec   Section        0  app_net.o(i.isModulePowerOn)
    i.isModuleRunNormal                      0x08012ef8   Section        0  app_net.o(i.isModuleRunNormal)
    i.isProtocolReday                        0x08012f0c   Section        0  app_serverprotocol.o(i.isProtocolReday)
    i.kernalRun                              0x08012f2c   Section        0  app_kernal.o(i.kernalRun)
    i.latitude_to_double                     0x08012fdc   Section        0  app_nmea.o(i.latitude_to_double)
    i.lbsUploadRequestTask                   0x08013084   Section        0  app_task.o(i.lbsUploadRequestTask)
    i.ldrInterrupt                           0x080130dc   Section        0  app_port.o(i.ldrInterrupt)
    i.ledRunTask                             0x08013164   Section        0  app_task.o(i.ledRunTask)
    i.ledSetPeriod                           0x08013170   Section        0  app_task.o(i.ledSetPeriod)
    ledSetPeriod                             0x08013171   Thumb Code    18  app_task.o(i.ledSetPeriod)
    i.longitude_to_double                    0x08013188   Section        0  app_nmea.o(i.longitude_to_double)
    i.lowPowerConfig                         0x08013230   Section        0  app_port.o(i.lowPowerConfig)
    i.main                                   0x0801324c   Section        0  main.o(i.main)
    i.malloc                                 0x08013278   Section        0  malloc.o(i.malloc)
    i.mir3da_init                            0x080132e4   Section        0  app_mir3da.o(i.mir3da_init)
    i.mir3da_open_interrupt                  0x080133f8   Section        0  app_mir3da.o(i.mir3da_open_interrupt)
    i.mir3da_register_read                   0x08013420   Section        0  app_mir3da.o(i.mir3da_register_read)
    i.mir3da_register_write                  0x08013448   Section        0  app_mir3da.o(i.mir3da_register_write)
    i.mir3da_set_enable                      0x08013478   Section        0  app_mir3da.o(i.mir3da_set_enable)
    i.modeShutDownQuickly                    0x0801348c   Section        0  app_task.o(i.modeShutDownQuickly)
    modeShutDownQuickly                      0x0801348d   Thumb Code    90  app_task.o(i.modeShutDownQuickly)
    i.moduleInfoInit                         0x08013520   Section        0  app_net.o(i.moduleInfoInit)
    moduleInfoInit                           0x08013521   Thumb Code    22  app_net.o(i.moduleInfoInit)
    i.modulePinConfig                        0x0801353c   Section        0  app_port.o(i.modulePinConfig)
    i.modulePowerOff                         0x08013600   Section        0  app_net.o(i.modulePowerOff)
    i.modulePowerOn                          0x08013654   Section        0  app_net.o(i.modulePowerOn)
    i.moduleReset                            0x080136b4   Section        0  app_net.o(i.moduleReset)
    i.moduleResetProcessA                    0x08013718   Section        0  app_net.o(i.moduleResetProcessA)
    moduleResetProcessA                      0x08013719   Thumb Code    40  app_net.o(i.moduleResetProcessA)
    i.moduleResponParaser                    0x08013758   Section        0  app_net.o(i.moduleResponParaser)
    i.moduleRiSignal                         0x08013990   Section        0  app_port.o(i.moduleRiSignal)
    i.myAppConfig                            0x080139ac   Section        0  app_user.o(i.myAppConfig)
    i.myAppRun                               0x08013a00   Section        0  app_user.o(i.myAppRun)
    i.my_getstrindex                         0x08013a10   Section        0  app_sys.o(i.my_getstrindex)
    i.my_strpach                             0x08013a68   Section        0  app_sys.o(i.my_strpach)
    i.my_strstr                              0x08013a96   Section        0  app_sys.o(i.my_strstr)
    i.mycmdPatch                             0x08013acc   Section        0  app_atcmd.o(i.mycmdPatch)
    mycmdPatch                               0x08013acd   Thumb Code    58  app_atcmd.o(i.mycmdPatch)
    i.n58ATA                                 0x08013b08   Section        0  app_net.o(i.n58ATA)
    i.n58AutoATA                             0x08013b20   Section        0  app_net.o(i.n58AutoATA)
    i.n58CCIDParase                          0x08013b68   Section        0  app_net.o(i.n58CCIDParase)
    i.n58CGSNParase                          0x08013be8   Section        0  app_net.o(i.n58CGSNParase)
    i.n58CIMIParase                          0x08013c3c   Section        0  app_net.o(i.n58CIMIParase)
    i.n58CMGRparse                           0x08013d1c   Section        0  app_net.o(i.n58CMGRparse)
    i.n58CMTIparase                          0x08013df4   Section        0  app_net.o(i.n58CMTIparase)
    i.n58CREGparase                          0x08013e78   Section        0  app_net.o(i.n58CREGparase)
    i.n58CSQparase                           0x08013f1c   Section        0  app_net.o(i.n58CSQparase)
    i.n58FSLISTparase                        0x08013fa4   Section        0  app_net.o(i.n58FSLISTparase)
    i.n58FswrParase                          0x08014134   Section        0  app_net.o(i.n58FswrParase)
    i.n58GmrParser                           0x08014280   Section        0  app_net.o(i.n58GmrParser)
    i.n58MygpsposParaser                     0x080142e0   Section        0  app_net.o(i.n58MygpsposParaser)
    i.n58MygpsstateParase                    0x0801430c   Section        0  app_net.o(i.n58MygpsstateParase)
    i.n58MylacidParse                        0x0801438c   Section        0  app_net.o(i.n58MylacidParse)
    i.n58NwblecconParser                     0x08014474   Section        0  app_net.o(i.n58NwblecconParser)
    i.n58NwbleroleParser                     0x080144d4   Section        0  app_net.o(i.n58NwbleroleParser)
    i.n58NwbtblepwrParser                    0x08014554   Section        0  app_net.o(i.n58NwbtblepwrParser)
    i.n58NwurcblestatParser                  0x080145d0   Section        0  app_net.o(i.n58NwurcblestatParser)
    i.n58TCPRecvparase                       0x0801464c   Section        0  app_net.o(i.n58TCPRecvparase)
    i.n58TCPcloseparase                      0x0801470c   Section        0  app_net.o(i.n58TCPcloseparase)
    i.n58TCPsetupparase                      0x0801479c   Section        0  app_net.o(i.n58TCPsetupparase)
    i.n58TcpsendParase                       0x08014914   Section        0  app_net.o(i.n58TcpsendParase)
    n58TcpsendParase                         0x08014915   Thumb Code    84  app_net.o(i.n58TcpsendParase)
    i.n58WIFISCANParse                       0x0801499c   Section        0  app_net.o(i.n58WIFISCANParse)
    i.n58cgattparase                         0x08014a6c   Section        0  app_net.o(i.n58cgattparase)
    i.n58cgdcontparase                       0x08014ab8   Section        0  app_net.o(i.n58cgdcontparase)
    i.n58mysysteminfoparase                  0x08014ad4   Section        0  app_net.o(i.n58mysysteminfoparase)
    i.n58xgauthparase                        0x08014b10   Section        0  app_net.o(i.n58xgauthparase)
    i.n58xiicparase                          0x08014b2c   Section        0  app_net.o(i.n58xiicparase)
    i.n58xiicqueryparase                     0x08014b48   Section        0  app_net.o(i.n58xiicqueryparase)
    i.netConnectReset                        0x08014bec   Section        0  app_serverprotocol.o(i.netConnectReset)
    i.netExitStopMode                        0x08014bfc   Section        0  app_net.o(i.netExitStopMode)
    i.netModuleShutdown                      0x08014c38   Section        0  app_task.o(i.netModuleShutdown)
    netModuleShutdown                        0x08014c39   Thumb Code    44  app_task.o(i.netModuleShutdown)
    i.netModuleStartup                       0x08014c84   Section        0  app_task.o(i.netModuleStartup)
    netModuleStartup                         0x08014c85   Thumb Code    52  app_task.o(i.netModuleStartup)
    i.netWorkModuleRunOk                     0x08014d10   Section        0  app_net.o(i.netWorkModuleRunOk)
    i.nmeaParse                              0x08014d24   Section        0  app_nmea.o(i.nmeaParse)
    i.openModuleGPS                          0x08014d74   Section        0  app_net.o(i.openModuleGPS)
    i.outPutNodeCmd                          0x08014d90   Section        0  app_net.o(i.outPutNodeCmd)
    i.packIMEI                               0x08014df0   Section        0  app_serverprotocol.o(i.packIMEI)
    packIMEI                                 0x08014df1   Thumb Code   126  app_serverprotocol.o(i.packIMEI)
    i.paramDefaultInit                       0x08014e74   Section        0  app_param.o(i.paramDefaultInit)
    i.paramGetAdcCal                         0x08014fec   Section        0  app_param.o(i.paramGetAdcCal)
    i.paramGetApnName                        0x0801500c   Section        0  app_param.o(i.paramGetApnName)
    i.paramGetApnPswd                        0x08015028   Section        0  app_param.o(i.paramGetApnPswd)
    i.paramGetApnUser                        0x08015044   Section        0  app_param.o(i.paramGetApnUser)
    i.paramGetBleMac                         0x08015060   Section        0  app_param.o(i.paramGetBleMac)
    i.paramGetCM                             0x08015080   Section        0  app_param.o(i.paramGetCM)
    i.paramGetCodeVersion                    0x0801508c   Section        0  app_param.o(i.paramGetCodeVersion)
    i.paramGetGPSUploadInterval              0x080150a8   Section        0  app_param.o(i.paramGetGPSUploadInterval)
    i.paramGetHeartbeatInterval              0x080150b4   Section        0  app_param.o(i.paramGetHeartbeatInterval)
    i.paramGetLoww                           0x080150c0   Section        0  app_param.o(i.paramGetLoww)
    i.paramGetMode2cnt                       0x080150cc   Section        0  app_param.o(i.paramGetMode2cnt)
    i.paramGetServer                         0x080150e0   Section        0  app_param.o(i.paramGetServer)
    i.paramGetSnNumber                       0x0801510c   Section        0  app_param.o(i.paramGetSnNumber)
    i.paramGetUPSServer                      0x0801512c   Section        0  app_param.o(i.paramGetUPSServer)
    i.paramInit                              0x08015154   Section        0  app_param.o(i.paramInit)
    i.paramSaveACCCTLGNSS                    0x08015300   Section        0  app_param.o(i.paramSaveACCCTLGNSS)
    i.paramSaveAdcCal                        0x08015318   Section        0  app_param.o(i.paramSaveAdcCal)
    i.paramSaveAlarmTime                     0x08015338   Section        0  app_param.o(i.paramSaveAlarmTime)
    i.paramSaveApnName                       0x08015360   Section        0  app_param.o(i.paramSaveApnName)
    i.paramSaveApnPswd                       0x0801539c   Section        0  app_param.o(i.paramSaveApnPswd)
    i.paramSaveApnUser                       0x080153d8   Section        0  app_param.o(i.paramSaveApnUser)
    i.paramSaveAutoAnswer                    0x08015414   Section        0  app_param.o(i.paramSaveAutoAnswer)
    i.paramSaveBF                            0x0801542c   Section        0  app_param.o(i.paramSaveBF)
    i.paramSaveBleMac                        0x08015444   Section        0  app_param.o(i.paramSaveBleMac)
    i.paramSaveCM                            0x08015482   Section        0  app_param.o(i.paramSaveCM)
    i.paramSaveCodeVersion                   0x08015490   Section        0  app_param.o(i.paramSaveCodeVersion)
    i.paramSaveFence                         0x080154b8   Section        0  app_param.o(i.paramSaveFence)
    i.paramSaveGPSUploadInterval             0x080154d0   Section        0  app_param.o(i.paramSaveGPSUploadInterval)
    i.paramSaveHardFault                     0x080154e0   Section        0  app_param.o(i.paramSaveHardFault)
    i.paramSaveHeartbeatInterval             0x080154f4   Section        0  app_param.o(i.paramSaveHeartbeatInterval)
    i.paramSaveInterval                      0x08015504   Section        0  app_param.o(i.paramSaveInterval)
    i.paramSaveLedCtl                        0x0801551c   Section        0  app_param.o(i.paramSaveLedCtl)
    i.paramSaveLightAlarmMode                0x08015534   Section        0  app_param.o(i.paramSaveLightAlarmMode)
    i.paramSaveLoww                          0x0801554c   Section        0  app_param.o(i.paramSaveLoww)
    i.paramSaveMallocFault                   0x0801555c   Section        0  app_param.o(i.paramSaveMallocFault)
    i.paramSaveMode                          0x08015570   Section        0  app_param.o(i.paramSaveMode)
    i.paramSaveMode1GapDay                   0x08015588   Section        0  app_param.o(i.paramSaveMode1GapDay)
    i.paramSaveMode1Timer                    0x080155a0   Section        0  app_param.o(i.paramSaveMode1Timer)
    i.paramSaveMode2cnt                      0x080155b8   Section        0  app_param.o(i.paramSaveMode2cnt)
    i.paramSaveNoNetWakeUpMinutes            0x080155d0   Section        0  app_param.o(i.paramSaveNoNetWakeUpMinutes)
    i.paramSavePdop                          0x080155e8   Section        0  app_param.o(i.paramSavePdop)
    i.paramSavePoitype                       0x08015600   Section        0  app_param.o(i.paramSavePoitype)
    i.paramSaveServer                        0x08015618   Section        0  app_param.o(i.paramSaveServer)
    i.paramSaveSmsreply                      0x08015662   Section        0  app_param.o(i.paramSaveSmsreply)
    i.paramSaveSnNumber                      0x08015670   Section        0  app_param.o(i.paramSaveSnNumber)
    i.paramSaveTurnalg                       0x08015690   Section        0  app_param.o(i.paramSaveTurnalg)
    i.paramSaveUPSServer                     0x080156a8   Section        0  app_param.o(i.paramSaveUPSServer)
    i.paramSaveUTC                           0x080156f0   Section        0  app_param.o(i.paramSaveUTC)
    i.paramSaveUpdateStatus                  0x08015708   Section        0  app_param.o(i.paramSaveUpdateStatus)
    i.paraseInstructionToItem                0x0801571c   Section        0  app_sys.o(i.paraseInstructionToItem)
    i.parseGPS                               0x08015850   Section        0  app_nmea.o(i.parseGPS)
    i.parse_GGA                              0x08015988   Section        0  app_nmea.o(i.parse_GGA)
    i.parse_GSA                              0x080159a4   Section        0  app_nmea.o(i.parse_GSA)
    i.parse_GSV                              0x080159e0   Section        0  app_nmea.o(i.parse_GSV)
    i.parse_RMC                              0x08015ba4   Section        0  app_nmea.o(i.parse_RMC)
    i.pollUartData                           0x08015cfc   Section        0  app_port.o(i.pollUartData)
    i.pow                                    0x08015d1c   Section        0  pow.o(i.pow)
    i.protocolFsmStateChange                 0x08016718   Section        0  app_serverprotocol.o(i.protocolFsmStateChange)
    i.protocolGPSpack                        0x0801675c   Section        0  app_serverprotocol.o(i.protocolGPSpack)
    protocolGPSpack                          0x0801675d   Thumb Code   450  app_serverprotocol.o(i.protocolGPSpack)
    i.protocolRxParase                       0x0801692c   Section        0  app_serverprotocol.o(i.protocolRxParase)
    i.reConnectServer                        0x08016a38   Section        0  app_net.o(i.reConnectServer)
    i.reCover123InstructionId                0x08016a44   Section        0  app_serverprotocol.o(i.reCover123InstructionId)
    i.readInterruptConfig                    0x08016a60   Section        0  app_mir3da.o(i.readInterruptConfig)
    i.read_gsensor_id                        0x08016aa8   Section        0  app_mir3da.o(i.read_gsensor_id)
    i.recCycleStart                          0x08016b58   Section        0  app_rec.o(i.recCycleStart)
    i.recCycleStop                           0x08016b64   Section        0  app_rec.o(i.recCycleStop)
    i.recCycleTask                           0x08016b7c   Section        0  app_rec.o(i.recCycleTask)
    i.recGetRecStruct                        0x08016bf0   Section        0  app_rec.o(i.recGetRecStruct)
    i.recIsRun                               0x08016bf8   Section        0  app_rec.o(i.recIsRun)
    i.recNoFileToread                        0x08016c0c   Section        0  app_rec.o(i.recNoFileToread)
    i.recReadFileOk                          0x08016c34   Section        0  app_rec.o(i.recReadFileOk)
    i.recRecordUploadTask                    0x08016c40   Section        0  app_rec.o(i.recRecordUploadTask)
    i.recStart                               0x08016cfc   Section        0  app_rec.o(i.recStart)
    i.recStop                                0x08016da0   Section        0  app_rec.o(i.recStop)
    i.recStopAndUpload                       0x08016dd8   Section        0  app_rec.o(i.recStopAndUpload)
    i.recUpdateFileName                      0x08016dec   Section        0  app_rec.o(i.recUpdateFileName)
    i.recUpdateFileSize                      0x08016e00   Section        0  app_rec.o(i.recUpdateFileSize)
    i.repairGsensor                          0x08016e4c   Section        0  app_task.o(i.repairGsensor)
    repairGsensor                            0x08016e4d   Thumb Code    10  app_task.o(i.repairGsensor)
    i.resIsCycleRuning                       0x08016e58   Section        0  app_rec.o(i.resIsCycleRuning)
    i.save123InstructionId                   0x08016e64   Section        0  app_serverprotocol.o(i.save123InstructionId)
    i.sendDataToServer                       0x08016e80   Section        0  app_net.o(i.sendDataToServer)
    i.sendMessage                            0x08016eac   Section        0  app_net.o(i.sendMessage)
    i.sendMessageWithDifMode                 0x08016ef8   Section        0  app_instructioncmd.o(i.sendMessageWithDifMode)
    i.sendModuleCmd                          0x08016ff0   Section        0  app_net.o(i.sendModuleCmd)
    i.sendProtocolToServer                   0x080170c0   Section        0  app_serverprotocol.o(i.sendProtocolToServer)
    i.setNextAlarmTime                       0x080171e0   Section        0  app_port.o(i.setNextAlarmTime)
    i.setNextWakeUpTime                      0x08017320   Section        0  app_port.o(i.setNextWakeUpTime)
    i.setkey                                 0x080173f8   Section        0  app_sn.o(i.setkey)
    setkey                                   0x080173f9   Thumb Code   170  app_sn.o(i.setkey)
    i.showgpsinfo                            0x080174b0   Section        0  app_nmea.o(i.showgpsinfo)
    i.signalLedTask                          0x0801769c   Section        0  app_task.o(i.signalLedTask)
    signalLedTask                            0x0801769d   Thumb Code   114  app_task.o(i.signalLedTask)
    i.sin                                    0x08017720   Section        0  sin.o(i.sin)
    i.sqrt                                   0x080177bc   Section        0  sqrt.o(i.sqrt)
    i.startTimer                             0x08017804   Section        0  app_kernal.o(i.startTimer)
    i.stopTimer                              0x08017874   Section        0  app_kernal.o(i.stopTimer)
    i.systemModeRunStart                     0x080178dc   Section        0  app_task.o(i.systemModeRunStart)
    i.systemModeRunTask                      0x0801792c   Section        0  app_task.o(i.systemModeRunTask)
    i.systemRequestClear                     0x08017b48   Section        0  app_task.o(i.systemRequestClear)
    i.systemRequestSet                       0x08017b58   Section        0  app_task.o(i.systemRequestSet)
    i.systemRequestTask                      0x08017b68   Section        0  app_task.o(i.systemRequestTask)
    i.systemShutDown                         0x08017cd8   Section        0  app_task.o(i.systemShutDown)
    i.systemTaskResume                       0x08017d68   Section        0  app_kernal.o(i.systemTaskResume)
    i.systemTaskSuspend                      0x08017db8   Section        0  app_kernal.o(i.systemTaskSuspend)
    i.taskRunInOneSecond                     0x08017e08   Section        0  app_task.o(i.taskRunInOneSecond)
    i.terminalAccoff                         0x08017e48   Section        0  app_sys.o(i.terminalAccoff)
    i.terminalAccon                          0x08017e58   Section        0  app_sys.o(i.terminalAccon)
    i.terminalAlarmSet                       0x08017e68   Section        0  app_sys.o(i.terminalAlarmSet)
    i.terminalCharge                         0x08017e7c   Section        0  app_sys.o(i.terminalCharge)
    i.terminalGPSFixed                       0x08017e8c   Section        0  app_sys.o(i.terminalGPSFixed)
    i.terminalGPSUnFixed                     0x08017e9c   Section        0  app_sys.o(i.terminalGPSUnFixed)
    i.terminalunCharge                       0x08017eac   Section        0  app_sys.o(i.terminalunCharge)
    i.updateAlarmA                           0x08017ebc   Section        0  app_port.o(i.updateAlarmA)
    updateAlarmA                             0x08017ebd   Thumb Code    92  app_port.o(i.updateAlarmA)
    i.updateLocalRTCTime                     0x08017f48   Section        0  app_gps.o(i.updateLocalRTCTime)
    i.updateRTCdatetime                      0x08017fb4   Section        0  app_port.o(i.updateRTCdatetime)
    i.updateRTCtimeRequest                   0x0801806c   Section        0  app_sys.o(i.updateRTCtimeRequest)
    i.updateSystemLedStatus                  0x0801807c   Section        0  app_task.o(i.updateSystemLedStatus)
    i.updateSystemStartTime                  0x080180ec   Section        0  app_sys.o(i.updateSystemStartTime)
    i.uploadRequestInMode4                   0x080180f8   Section        0  app_task.o(i.uploadRequestInMode4)
    i.usartGetDataFromDma                    0x080181ac   Section        0  app_port.o(i.usartGetDataFromDma)
    usartGetDataFromDma                      0x080181ad   Thumb Code   132  app_port.o(i.usartGetDataFromDma)
    i.voltageCheckTask                       0x08018240   Section        0  app_task.o(i.voltageCheckTask)
    i.wdtProcess                             0x0801859c   Section        0  app_task.o(i.wdtProcess)
    i.wifiScanStart                          0x080186c0   Section        0  app_task.o(i.wifiScanStart)
    wifiScanStart                            0x080186c1   Thumb Code    22  app_task.o(i.wifiScanStart)
    i.wifiUploadRequestTask                  0x080186d8   Section        0  app_task.o(i.wifiUploadRequestTask)
    i.ztvm_encrypt_des                       0x0801870c   Section        0  app_sn.o(i.ztvm_encrypt_des)
    i.ztvm_encrypt_undes                     0x08018762   Section        0  app_sn.o(i.ztvm_encrypt_undes)
    i.ztvm_encrypt_untrides                  0x080187ba   Section        0  app_sn.o(i.ztvm_encrypt_untrides)
    .constdata                               0x080187e2   Section      536  app_sys.o(.constdata)
    ztvm_crctab16                            0x080187e2   Data         512  app_sys.o(.constdata)
    __FUNCTION__                             0x080189e2   Data          24  app_sys.o(.constdata)
    .constdata                               0x080189fa   Section     1176  app_net.o(.constdata)
    .constdata                               0x08018e92   Section      901  app_atcmd.o(.constdata)
    __FUNCTION__                             0x080191f5   Data          14  app_atcmd.o(.constdata)
    __FUNCTION__                             0x08019203   Data          20  app_atcmd.o(.constdata)
    .constdata                               0x08019217   Section      840  app_sn.o(.constdata)
    e                                        0x08019217   Data          48  app_sn.o(.constdata)
    PC1_C                                    0x08019247   Data          28  app_sn.o(.constdata)
    PC1_D                                    0x08019263   Data          28  app_sn.o(.constdata)
    shifts                                   0x0801927f   Data          16  app_sn.o(.constdata)
    PC2_C                                    0x0801928f   Data          24  app_sn.o(.constdata)
    PC2_D                                    0x080192a7   Data          24  app_sn.o(.constdata)
    IP                                       0x080192bf   Data          64  app_sn.o(.constdata)
    FP                                       0x080192ff   Data          64  app_sn.o(.constdata)
    S                                        0x0801933f   Data         512  app_sn.o(.constdata)
    P                                        0x0801953f   Data          32  app_sn.o(.constdata)
    .constdata                               0x0801955f   Section       25  system_stm32l0xx.o(.constdata)
    .constdata                               0x08019578   Section        8  system_stm32l0xx.o(.constdata)
    .constdata                               0x08019580   Section       80  asin.o(.constdata)
    pS                                       0x08019580   Data          48  asin.o(.constdata)
    qS                                       0x080195b0   Data          32  asin.o(.constdata)
    .constdata                               0x080195d0   Section      136  pow.o(.constdata)
    bp                                       0x080195d0   Data          16  pow.o(.constdata)
    dp_h                                     0x080195e0   Data          16  pow.o(.constdata)
    dp_l                                     0x080195f0   Data          16  pow.o(.constdata)
    L                                        0x08019600   Data          48  pow.o(.constdata)
    P                                        0x08019630   Data          40  pow.o(.constdata)
    .constdata                               0x08019658   Section       12  mktime.o(.constdata)
    monlen                                   0x08019658   Data          12  mktime.o(.constdata)
    .constdata                               0x08019668   Section       48  cos_i.o(.constdata)
    C                                        0x08019668   Data          48  cos_i.o(.constdata)
    .constdata                               0x08019698   Section        8  qnan.o(.constdata)
    .constdata                               0x080196a0   Section      200  rred.o(.constdata)
    pio2s                                    0x080196a0   Data          48  rred.o(.constdata)
    twooverpi                                0x080196d0   Data         152  rred.o(.constdata)
    .constdata                               0x08019768   Section       40  sin_i.o(.constdata)
    S                                        0x08019768   Data          40  sin_i.o(.constdata)
    .constdata                               0x08019790   Section      129  ctype_o.o(.constdata)
    .constdata                               0x08019814   Section        4  ctype_o.o(.constdata)
    table                                    0x08019814   Data           4  ctype_o.o(.constdata)
    .constdata                               0x08019818   Section       12  localtime_i.o(.constdata)
    monlen                                   0x08019818   Data          12  localtime_i.o(.constdata)
    .conststring                             0x08019824   Section      525  app_instructioncmd.o(.conststring)
    .data                                    0x20000000   Section        4  app_kernal.o(.data)
    timer_head                               0x20000000   Data           4  app_kernal.o(.data)
    .data                                    0x20000004   Section        8  app_port.o(.data)
    ldrLastState                             0x20000004   Data           1  app_port.o(.data)
    lastTick                                 0x20000008   Data           4  app_port.o(.data)
    .data                                    0x2000000c   Section        8  app_net.o(.data)
    autoatatimerid                           0x2000000c   Data           1  app_net.o(.data)
    headNode                                 0x20000010   Data           4  app_net.o(.data)
    .data                                    0x20000014   Section       36  app_task.o(.data)
    tick                                     0x20000014   Data           1  app_task.o(.data)
    tick                                     0x20000015   Data           1  app_task.o(.data)
    alarmUploadWait                          0x20000016   Data           1  app_task.o(.data)
    tick                                     0x20000017   Data           1  app_task.o(.data)
    uploadtick                               0x20000018   Data           1  app_task.o(.data)
    step                                     0x20000019   Data           1  app_task.o(.data)
    tick                                     0x2000001a   Data           1  app_task.o(.data)
    count                                    0x2000001b   Data           1  app_task.o(.data)
    delaytick                                0x2000001c   Data           1  app_task.o(.data)
    delaytick                                0x2000001d   Data           1  app_task.o(.data)
    powernormaltick                          0x2000001e   Data           1  app_task.o(.data)
    clearRunninginfo                         0x2000001f   Data           1  app_task.o(.data)
    lowwflag                                 0x20000020   Data           1  app_task.o(.data)
    vi                                       0x20000021   Data           1  app_task.o(.data)
    mode2runtick                             0x20000022   Data           1  app_task.o(.data)
    delaytick                                0x20000023   Data           1  app_task.o(.data)
    index                                    0x20000024   Data           1  app_task.o(.data)
    tick                                     0x20000025   Data           1  app_task.o(.data)
    errorcount                               0x20000026   Data           1  app_task.o(.data)
    runtick                                  0x20000028   Data           2  app_task.o(.data)
    count2                                   0x2000002a   Data           2  app_task.o(.data)
    mode4runtick                             0x2000002c   Data           2  app_task.o(.data)
    nonettick                                0x2000002e   Data           2  app_task.o(.data)
    lowpowertick                             0x20000030   Data           2  app_task.o(.data)
    superlowpowertick                        0x20000032   Data           2  app_task.o(.data)
    tick                                     0x20000034   Data           4  app_task.o(.data)
    .data                                    0x20000038   Section       12  app_serverprotocol.o(.data)
    hbtTimerid                               0x20000038   Data           1  app_serverprotocol.o(.data)
    instructionserier                        0x2000003a   Data           2  app_serverprotocol.o(.data)
    instructionid                            0x2000003c   Data           4  app_serverprotocol.o(.data)
    instructionid123                         0x20000040   Data           4  app_serverprotocol.o(.data)
    .data                                    0x20000044   Section        1  app_nmea.o(.data)
    count                                    0x20000044   Data           1  app_nmea.o(.data)
    .data                                    0x20000045   Section        1  app_instructioncmd.o(.data)
    mode123                                  0x20000045   Data           1  app_instructioncmd.o(.data)
    .data                                    0x20000046   Section       18  app_sn.o(.data)
    Key1_Save                                0x20000046   Data           9  app_sn.o(.data)
    Key2_Save                                0x2000004f   Data           9  app_sn.o(.data)
    .data                                    0x20000058   Section        8  app_gpsarithmetic.o(.data)
    tick                                     0x20000058   Data           8  app_gpsarithmetic.o(.data)
    .data                                    0x20000060   Section        1  app_mir3da.o(.data)
    .data                                    0x20000064   Section       12  stm32l0xx_hal.o(.data)
    .data                                    0x20000070   Section        4  system_stm32l0xx.o(.data)
    .data                                    0x20000074   Section        4  mvars.o(.data)
    .data                                    0x20000078   Section        4  mvars.o(.data)
    .data                                    0x2000007c   Section        4  errno.o(.data)
    _errno                                   0x2000007c   Data           4  errno.o(.data)
    .bss                                     0x20000080   Section       16  app_kernal.o(.bss)
    timer_list                               0x20000080   Data          16  app_kernal.o(.bss)
    .bss                                     0x20000090   Section     3004  app_port.o(.bss)
    .bss                                     0x20000c4c   Section      380  app_sys.o(.bss)
    LOGDEBUG                                 0x20000cc8   Data         256  app_sys.o(.bss)
    .bss                                     0x20000dc8   Section      322  app_param.o(.bss)
    .bss                                     0x20000f0c   Section      161  app_net.o(.bss)
    .bss                                     0x20000fb0   Section       32  app_task.o(.bss)
    voltage                                  0x20000fb0   Data          20  app_task.o(.bss)
    sysledinfo                               0x20000fc4   Data          12  app_task.o(.bss)
    .bss                                     0x20000fd0   Section       32  app_serverprotocol.o(.bss)
    gpsres                                   0x20000fdc   Data          20  app_serverprotocol.o(.bss)
    .bss                                     0x20000ff0   Section     1080  app_gps.o(.bss)
    gpsfifo                                  0x20000ff0   Data        1016  app_gps.o(.bss)
    analysis_data                            0x200013e8   Data          64  app_gps.o(.bss)
    .bss                                     0x20001428   Section       60  app_gpsrestore.o(.bss)
    grfm                                     0x20001428   Data          60  app_gpsrestore.o(.bss)
    .bss                                     0x20001468   Section      112  app_nmea.o(.bss)
    gpsinfonow                               0x20001468   Data         112  app_nmea.o(.bss)
    .bss                                     0x200014d8   Section       30  app_instructioncmd.o(.bss)
    telnum123                                0x200014d8   Data          30  app_instructioncmd.o(.bss)
    .bss                                     0x200014f8   Section       68  app_rec.o(.bss)
    .bss                                     0x2000153c   Section      960  app_sn.o(.bss)
    KS                                       0x2000153c   Data         768  app_sn.o(.bss)
    E                                        0x2000183c   Data          64  app_sn.o(.bss)
    C                                        0x2000187c   Data          64  app_sn.o(.bss)
    D                                        0x200018bc   Data          64  app_sn.o(.bss)
    .bss                                     0x20001900   Section       32  app_gpsarithmetic.o(.bss)
    .bss                                     0x20001920   Section       23  app_ble.o(.bss)
    .bss                                     0x20001938   Section       92  adc.o(.bss)
    .bss                                     0x20001994   Section       76  i2c.o(.bss)
    .bss                                     0x200019e0   Section       16  iwdg.o(.bss)
    .bss                                     0x200019f0   Section      612  usart.o(.bss)
    .bss                                     0x20001c54   Section       36  rtc.o(.bss)
    .bss                                     0x20001c78   Section       24  stm32l0xx_hal_flash.o(.bss)
    HEAP                                     0x20001c90   Section     4096  startup_stm32l071xx.o(HEAP)
    STACK                                    0x20002c90   Section     4096  startup_stm32l071xx.o(STACK)

    Global Symbols

    Symbol Name                              Value     Ov Type        Size  Object(Section)

    BuildAttributes$$THM_ISAv3M$S$PE$A:L22$X:L11$S22$IEEE1$IW$USESV6$~STKCKD$USESV7$~SHL$OTIME$ROPI$IEEEX$EBA8$MICROLIB$REQ8$PRES8$EABIv2 0x00000000   Number         0  anon$$obj.o ABSOLUTE
    __ARM_use_no_argv                        0x00000000   Number         0  main.o ABSOLUTE
    _printf_a                                0x00000000   Number         0  stubs.o ABSOLUTE
    _printf_c                                0x00000000   Number         0  stubs.o ABSOLUTE
    _printf_charcount                        0x00000000   Number         0  stubs.o ABSOLUTE
    _printf_d                                0x00000000   Number         0  stubs.o ABSOLUTE
    _printf_e                                0x00000000   Number         0  stubs.o ABSOLUTE
    _printf_f                                0x00000000   Number         0  stubs.o ABSOLUTE
    _printf_flags                            0x00000000   Number         0  stubs.o ABSOLUTE
    _printf_fp_dec                           0x00000000   Number         0  stubs.o ABSOLUTE
    _printf_fp_hex                           0x00000000   Number         0  stubs.o ABSOLUTE
    _printf_g                                0x00000000   Number         0  stubs.o ABSOLUTE
    _printf_i                                0x00000000   Number         0  stubs.o ABSOLUTE
    _printf_int_dec                          0x00000000   Number         0  stubs.o ABSOLUTE
    _printf_l                                0x00000000   Number         0  stubs.o ABSOLUTE
    _printf_lc                               0x00000000   Number         0  stubs.o ABSOLUTE
    _printf_ll                               0x00000000   Number         0  stubs.o ABSOLUTE
    _printf_lld                              0x00000000   Number         0  stubs.o ABSOLUTE
    _printf_lli                              0x00000000   Number         0  stubs.o ABSOLUTE
    _printf_llo                              0x00000000   Number         0  stubs.o ABSOLUTE
    _printf_llu                              0x00000000   Number         0  stubs.o ABSOLUTE
    _printf_llx                              0x00000000   Number         0  stubs.o ABSOLUTE
    _printf_longlong_dec                     0x00000000   Number         0  stubs.o ABSOLUTE
    _printf_longlong_hex                     0x00000000   Number         0  stubs.o ABSOLUTE
    _printf_longlong_oct                     0x00000000   Number         0  stubs.o ABSOLUTE
    _printf_ls                               0x00000000   Number         0  stubs.o ABSOLUTE
    _printf_mbtowc                           0x00000000   Number         0  stubs.o ABSOLUTE
    _printf_n                                0x00000000   Number         0  stubs.o ABSOLUTE
    _printf_o                                0x00000000   Number         0  stubs.o ABSOLUTE
    _printf_p                                0x00000000   Number         0  stubs.o ABSOLUTE
    _printf_percent                          0x00000000   Number         0  stubs.o ABSOLUTE
    _printf_pre_padding                      0x00000000   Number         0  stubs.o ABSOLUTE
    _printf_return_value                     0x00000000   Number         0  stubs.o ABSOLUTE
    _printf_s                                0x00000000   Number         0  stubs.o ABSOLUTE
    _printf_sizespec                         0x00000000   Number         0  stubs.o ABSOLUTE
    _printf_str                              0x00000000   Number         0  stubs.o ABSOLUTE
    _printf_truncate_signed                  0x00000000   Number         0  stubs.o ABSOLUTE
    _printf_truncate_unsigned                0x00000000   Number         0  stubs.o ABSOLUTE
    _printf_u                                0x00000000   Number         0  stubs.o ABSOLUTE
    _printf_wc                               0x00000000   Number         0  stubs.o ABSOLUTE
    _printf_wctomb                           0x00000000   Number         0  stubs.o ABSOLUTE
    _printf_widthprec                        0x00000000   Number         0  stubs.o ABSOLUTE
    _printf_x                                0x00000000   Number         0  stubs.o ABSOLUTE
    __arm_fini_                               - Undefined Weak Reference
    __cpp_initialize__aeabi_                  - Undefined Weak Reference
    __cxa_finalize                            - Undefined Weak Reference
    __decompress                              - Undefined Weak Reference
    _clock_init                               - Undefined Weak Reference
    _microlib_exit                            - Undefined Weak Reference
    __Vectors_Size                           0x000000c0   Number         0  startup_stm32l071xx.o ABSOLUTE
    __Vectors                                0x08007800   Data           4  startup_stm32l071xx.o(RESET)
    __Vectors_End                            0x080078c0   Data           0  startup_stm32l071xx.o(RESET)
    __main                                   0x080078c1   Thumb Code     0  entry.o(.ARM.Collect$$$$00000000)
    _main_stk                                0x080078c1   Thumb Code     0  entry2.o(.ARM.Collect$$$$00000001)
    _main_scatterload                        0x080078c5   Thumb Code     0  entry5.o(.ARM.Collect$$$$00000004)
    __main_after_scatterload                 0x080078c9   Thumb Code     0  entry5.o(.ARM.Collect$$$$00000004)
    _main_clock                              0x080078c9   Thumb Code     0  entry7b.o(.ARM.Collect$$$$00000008)
    _main_cpp_init                           0x080078c9   Thumb Code     0  entry8b.o(.ARM.Collect$$$$0000000A)
    _main_init                               0x080078c9   Thumb Code     0  entry9a.o(.ARM.Collect$$$$0000000B)
    __rt_lib_shutdown_fini                   0x080078d1   Thumb Code     0  entry12b.o(.ARM.Collect$$$$0000000E)
    __rt_final_cpp                           0x080078d5   Thumb Code     0  entry10a.o(.ARM.Collect$$$$0000000F)
    __rt_final_exit                          0x080078d5   Thumb Code     0  entry11a.o(.ARM.Collect$$$$00000011)
    Reset_Handler                            0x080078d9   Thumb Code     8  startup_stm32l071xx.o(.text)
    ADC1_COMP_IRQHandler                     0x080078eb   Thumb Code     0  startup_stm32l071xx.o(.text)
    DMA1_Channel1_IRQHandler                 0x080078eb   Thumb Code     0  startup_stm32l071xx.o(.text)
    EXTI0_1_IRQHandler                       0x080078eb   Thumb Code     0  startup_stm32l071xx.o(.text)
    EXTI2_3_IRQHandler                       0x080078eb   Thumb Code     0  startup_stm32l071xx.o(.text)
    FLASH_IRQHandler                         0x080078eb   Thumb Code     0  startup_stm32l071xx.o(.text)
    I2C1_IRQHandler                          0x080078eb   Thumb Code     0  startup_stm32l071xx.o(.text)
    I2C2_IRQHandler                          0x080078eb   Thumb Code     0  startup_stm32l071xx.o(.text)
    I2C3_IRQHandler                          0x080078eb   Thumb Code     0  startup_stm32l071xx.o(.text)
    LPTIM1_IRQHandler                        0x080078eb   Thumb Code     0  startup_stm32l071xx.o(.text)
    PVD_IRQHandler                           0x080078eb   Thumb Code     0  startup_stm32l071xx.o(.text)
    RCC_IRQHandler                           0x080078eb   Thumb Code     0  startup_stm32l071xx.o(.text)
    SPI1_IRQHandler                          0x080078eb   Thumb Code     0  startup_stm32l071xx.o(.text)
    SPI2_IRQHandler                          0x080078eb   Thumb Code     0  startup_stm32l071xx.o(.text)
    TIM21_IRQHandler                         0x080078eb   Thumb Code     0  startup_stm32l071xx.o(.text)
    TIM22_IRQHandler                         0x080078eb   Thumb Code     0  startup_stm32l071xx.o(.text)
    TIM2_IRQHandler                          0x080078eb   Thumb Code     0  startup_stm32l071xx.o(.text)
    TIM3_IRQHandler                          0x080078eb   Thumb Code     0  startup_stm32l071xx.o(.text)
    TIM6_IRQHandler                          0x080078eb   Thumb Code     0  startup_stm32l071xx.o(.text)
    TIM7_IRQHandler                          0x080078eb   Thumb Code     0  startup_stm32l071xx.o(.text)
    USART4_5_IRQHandler                      0x080078eb   Thumb Code     0  startup_stm32l071xx.o(.text)
    WWDG_IRQHandler                          0x080078eb   Thumb Code     0  startup_stm32l071xx.o(.text)
    __aeabi_uidiv                            0x080078f5   Thumb Code     0  uidiv.o(.text)
    __aeabi_uidivmod                         0x080078f5   Thumb Code    44  uidiv.o(.text)
    __aeabi_idiv                             0x08007921   Thumb Code     0  idiv.o(.text)
    __aeabi_idivmod                          0x08007921   Thumb Code    40  idiv.o(.text)
    __aeabi_uldivmod                         0x08007949   Thumb Code    96  uldiv.o(.text)
    mktime                                   0x080079a9   Thumb Code   124  mktime.o(.text)
    __aeabi_memcpy                           0x08007a35   Thumb Code    36  memcpya.o(.text)
    __aeabi_memcpy4                          0x08007a35   Thumb Code     0  memcpya.o(.text)
    __aeabi_memcpy8                          0x08007a35   Thumb Code     0  memcpya.o(.text)
    __aeabi_memset                           0x08007a59   Thumb Code    14  memseta.o(.text)
    __aeabi_memset4                          0x08007a59   Thumb Code     0  memseta.o(.text)
    __aeabi_memset8                          0x08007a59   Thumb Code     0  memseta.o(.text)
    __aeabi_memclr                           0x08007a67   Thumb Code     4  memseta.o(.text)
    __aeabi_memclr4                          0x08007a67   Thumb Code     0  memseta.o(.text)
    __aeabi_memclr8                          0x08007a67   Thumb Code     0  memseta.o(.text)
    _memset$wrapper                          0x08007a6b   Thumb Code    18  memseta.o(.text)
    strstr                                   0x08007a7d   Thumb Code    40  strstr.o(.text)
    strncpy                                  0x08007aa5   Thumb Code    26  strncpy.o(.text)
    strlen                                   0x08007abf   Thumb Code    14  strlen.o(.text)
    strcpy                                   0x08007acd   Thumb Code    18  strcpy.o(.text)
    strtoul                                  0x08007adf   Thumb Code   118  strtoul.o(.text)
    atoi                                     0x08007b55   Thumb Code    26  atoi.o(.text)
    atol                                     0x08007b6f   Thumb Code    26  atol.o(.text)
    __aeabi_fadd                             0x08007b89   Thumb Code   162  fadd.o(.text)
    __aeabi_fsub                             0x08007c2b   Thumb Code     8  fadd.o(.text)
    __aeabi_frsub                            0x08007c33   Thumb Code     8  fadd.o(.text)
    __aeabi_fmul                             0x08007c3b   Thumb Code   122  fmul.o(.text)
    __aeabi_fdiv                             0x08007cb5   Thumb Code   124  fdiv.o(.text)
    __aeabi_dadd                             0x08007d31   Thumb Code   330  dadd.o(.text)
    __aeabi_dsub                             0x08007e7b   Thumb Code    12  dadd.o(.text)
    __aeabi_drsub                            0x08007e87   Thumb Code    12  dadd.o(.text)
    __aeabi_dmul                             0x08007e99   Thumb Code   202  dmul.o(.text)
    __aeabi_ddiv                             0x08007f69   Thumb Code   234  ddiv.o(.text)
    __ARM_scalbn                             0x08008059   Thumb Code    44  dscalb.o(.text)
    scalbn                                   0x08008059   Thumb Code     0  dscalb.o(.text)
    __aeabi_ui2f                             0x08008085   Thumb Code    14  ffltui.o(.text)
    __aeabi_i2d                              0x08008095   Thumb Code    34  dflti.o(.text)
    __aeabi_ui2d                             0x080080bd   Thumb Code    24  dfltui.o(.text)
    __aeabi_f2uiz                            0x080080d9   Thumb Code    40  ffixui.o(.text)
    __aeabi_d2uiz                            0x08008101   Thumb Code    50  dfixui.o(.text)
    __aeabi_f2d                              0x0800813d   Thumb Code    40  f2d.o(.text)
    __aeabi_cdcmpeq                          0x08008165   Thumb Code     0  cdcmple.o(.text)
    __aeabi_cdcmple                          0x08008165   Thumb Code    38  cdcmple.o(.text)
    __aeabi_cdrcmple                         0x0800818d   Thumb Code    38  cdrcmple.o(.text)
    __aeabi_d2f                              0x080081b5   Thumb Code    56  d2f.o(.text)
    __aeabi_cfcmpeq                          0x080081ed   Thumb Code     0  cfcmple.o(.text)
    __aeabi_cfcmple                          0x080081ed   Thumb Code    20  cfcmple.o(.text)
    __aeabi_llsl                             0x08008201   Thumb Code    32  llshl.o(.text)
    _ll_shift_l                              0x08008201   Thumb Code     0  llshl.o(.text)
    __aeabi_llsr                             0x08008221   Thumb Code    34  llushr.o(.text)
    _ll_ushift_r                             0x08008221   Thumb Code     0  llushr.o(.text)
    __aeabi_lasr                             0x08008243   Thumb Code    38  llsshr.o(.text)
    _ll_sshift_r                             0x08008243   Thumb Code     0  llsshr.o(.text)
    __rt_ctype_table                         0x08008269   Thumb Code     4  ctype_o.o(.text)
    isspace                                  0x08008271   Thumb Code    18  isspace_o.o(.text)
    _localtime                               0x08008285   Thumb Code   104  localtime_i.o(.text)
    _strtoul                                 0x080082f9   Thumb Code   166  _strtoul.o(.text)
    __strtod_int                             0x080083d7   Thumb Code    94  strtod.o(.text)
    strtol                                   0x08008445   Thumb Code   108  strtol.o(.text)
    __I$use$fp                               0x080084b5   Thumb Code     0  iusefp.o(.text)
    _float_round                             0x080084b5   Thumb Code    16  fepilogue.o(.text)
    _float_epilogue                          0x080084c5   Thumb Code   114  fepilogue.o(.text)
    _double_round                            0x08008537   Thumb Code    26  depilogue.o(.text)
    _double_epilogue                         0x08008551   Thumb Code   164  depilogue.o(.text)
    _dsqrt                                   0x080085f5   Thumb Code   162  dsqrt.o(.text)
    __aeabi_d2ulz                            0x08008699   Thumb Code    54  dfixul.o(.text)
    __scatterload                            0x080086d9   Thumb Code    28  init.o(.text)
    __scatterload_rt2                        0x080086d9   Thumb Code     0  init.o(.text)
    _chval                                   0x080086fd   Thumb Code    30  _chval.o(.text)
    _scanf_real                              0x0800883b   Thumb Code     0  scanf_fp.o(.text)
    _scanf_really_real                       0x0800883b   Thumb Code   586  scanf_fp.o(.text)
    _sgetc                                   0x08008a91   Thumb Code    32  _sgetc.o(.text)
    _sbackspace                              0x08008ab1   Thumb Code    36  _sgetc.o(.text)
    __aeabi_d2iz                             0x08008ad5   Thumb Code    62  dfixi.o(.text)
    __aeabi_lmul                             0x08008b1d   Thumb Code   122  llmul.o(.text)
    _ll_mul                                  0x08008b1d   Thumb Code     0  llmul.o(.text)
    __aeabi_ul2d                             0x08008b99   Thumb Code    22  dfltul.o(.text)
    CreateNodeCmd                            0x08008cf1   Thumb Code   176  app_net.o(i.CreateNodeCmd)
    DMA1_Channel2_3_IRQHandler               0x08008ed1   Thumb Code    10  stm32l0xx_it.o(i.DMA1_Channel2_3_IRQHandler)
    DMA1_Channel4_5_6_7_IRQHandler           0x08008ee1   Thumb Code    16  stm32l0xx_it.o(i.DMA1_Channel4_5_6_7_IRQHandler)
    EXTI4_15_IRQHandler                      0x08008f25   Thumb Code    24  stm32l0xx_it.o(i.EXTI4_15_IRQHandler)
    Error_Handler                            0x08008f3d   Thumb Code     2  main.o(i.Error_Handler)
    FLASH_WaitForLastOperation               0x08008fd1   Thumb Code   106  stm32l0xx_hal_flash.o(i.FLASH_WaitForLastOperation)
    GetCrc16                                 0x08009041   Thumb Code    36  app_sys.o(i.GetCrc16)
    HAL_ADCEx_Calibration_Start              0x0800906d   Thumb Code   170  stm32l0xx_hal_adc_ex.o(i.HAL_ADCEx_Calibration_Start)
    HAL_ADC_ConfigChannel                    0x08009119   Thumb Code   140  stm32l0xx_hal_adc.o(i.HAL_ADC_ConfigChannel)
    HAL_ADC_GetState                         0x080091ad   Thumb Code     4  stm32l0xx_hal_adc.o(i.HAL_ADC_GetState)
    HAL_ADC_GetValue                         0x080091b1   Thumb Code     6  stm32l0xx_hal_adc.o(i.HAL_ADC_GetValue)
    HAL_ADC_Init                             0x080091b9   Thumb Code   446  stm32l0xx_hal_adc.o(i.HAL_ADC_Init)
    HAL_ADC_MspInit                          0x08009381   Thumb Code    72  adc.o(i.HAL_ADC_MspInit)
    HAL_ADC_PollForConversion                0x080093d1   Thumb Code   192  stm32l0xx_hal_adc.o(i.HAL_ADC_PollForConversion)
    HAL_ADC_Start                            0x08009491   Thumb Code    86  stm32l0xx_hal_adc.o(i.HAL_ADC_Start)
    HAL_ADC_Stop                             0x080094ed   Thumb Code    62  stm32l0xx_hal_adc.o(i.HAL_ADC_Stop)
    HAL_DMA_Abort                            0x0800952b   Thumb Code    68  stm32l0xx_hal_dma.o(i.HAL_DMA_Abort)
    HAL_DMA_Abort_IT                         0x0800956f   Thumb Code    76  stm32l0xx_hal_dma.o(i.HAL_DMA_Abort_IT)
    HAL_DMA_DeInit                           0x080095bd   Thumb Code    94  stm32l0xx_hal_dma.o(i.HAL_DMA_DeInit)
    HAL_DMA_GetError                         0x08009625   Thumb Code     4  stm32l0xx_hal_dma.o(i.HAL_DMA_GetError)
    HAL_DMA_IRQHandler                       0x08009629   Thumb Code   168  stm32l0xx_hal_dma.o(i.HAL_DMA_IRQHandler)
    HAL_DMA_Init                             0x080096d1   Thumb Code   132  stm32l0xx_hal_dma.o(i.HAL_DMA_Init)
    HAL_DMA_Start_IT                         0x08009761   Thumb Code   104  stm32l0xx_hal_dma.o(i.HAL_DMA_Start_IT)
    HAL_Delay                                0x080097c9   Thumb Code    32  stm32l0xx_hal.o(i.HAL_Delay)
    HAL_FLASHEx_DATAEEPROM_Lock              0x080097ed   Thumb Code    14  stm32l0xx_hal_flash_ex.o(i.HAL_FLASHEx_DATAEEPROM_Lock)
    HAL_FLASHEx_DATAEEPROM_Program           0x08009801   Thumb Code    76  stm32l0xx_hal_flash_ex.o(i.HAL_FLASHEx_DATAEEPROM_Program)
    HAL_FLASHEx_DATAEEPROM_Unlock            0x08009855   Thumb Code    40  stm32l0xx_hal_flash_ex.o(i.HAL_FLASHEx_DATAEEPROM_Unlock)
    HAL_GPIO_DeInit                          0x08009889   Thumb Code   212  stm32l0xx_hal_gpio.o(i.HAL_GPIO_DeInit)
    HAL_GPIO_EXTI_Callback                   0x08009979   Thumb Code    34  app_user.o(i.HAL_GPIO_EXTI_Callback)
    HAL_GPIO_EXTI_IRQHandler                 0x0800999d   Thumb Code    18  stm32l0xx_hal_gpio.o(i.HAL_GPIO_EXTI_IRQHandler)
    HAL_GPIO_Init                            0x080099b5   Thumb Code   356  stm32l0xx_hal_gpio.o(i.HAL_GPIO_Init)
    HAL_GPIO_ReadPin                         0x08009b39   Thumb Code    10  stm32l0xx_hal_gpio.o(i.HAL_GPIO_ReadPin)
    HAL_GPIO_WritePin                        0x08009b43   Thumb Code    12  stm32l0xx_hal_gpio.o(i.HAL_GPIO_WritePin)
    HAL_GetTick                              0x08009b51   Thumb Code     6  stm32l0xx_hal.o(i.HAL_GetTick)
    HAL_I2CEx_ConfigAnalogFilter             0x08009b5d   Thumb Code    74  stm32l0xx_hal_i2c_ex.o(i.HAL_I2CEx_ConfigAnalogFilter)
    HAL_I2CEx_ConfigDigitalFilter            0x08009ba7   Thumb Code    72  stm32l0xx_hal_i2c_ex.o(i.HAL_I2CEx_ConfigDigitalFilter)
    HAL_I2C_DeInit                           0x08009bef   Thumb Code    52  stm32l0xx_hal_i2c.o(i.HAL_I2C_DeInit)
    HAL_I2C_Init                             0x08009c25   Thumb Code   176  stm32l0xx_hal_i2c.o(i.HAL_I2C_Init)
    HAL_I2C_Mem_Read                         0x08009cd9   Thumb Code   332  stm32l0xx_hal_i2c.o(i.HAL_I2C_Mem_Read)
    HAL_I2C_Mem_Write                        0x08009e2d   Thumb Code   326  stm32l0xx_hal_i2c.o(i.HAL_I2C_Mem_Write)
    HAL_I2C_MspDeInit                        0x08009f79   Thumb Code    42  i2c.o(i.HAL_I2C_MspDeInit)
    HAL_I2C_MspInit                          0x08009fb1   Thumb Code    78  i2c.o(i.HAL_I2C_MspInit)
    HAL_IWDG_Init                            0x0800a00d   Thumb Code    86  stm32l0xx_hal_iwdg.o(i.HAL_IWDG_Init)
    HAL_IWDG_Refresh                         0x0800a071   Thumb Code    10  stm32l0xx_hal_iwdg.o(i.HAL_IWDG_Refresh)
    HAL_IncTick                              0x0800a081   Thumb Code    12  stm32l0xx_hal.o(i.HAL_IncTick)
    HAL_Init                                 0x0800a091   Thumb Code    36  stm32l0xx_hal.o(i.HAL_Init)
    HAL_InitTick                             0x0800a0b9   Thumb Code    58  stm32l0xx_hal.o(i.HAL_InitTick)
    HAL_MspInit                              0x0800a0fd   Thumb Code    20  stm32l0xx_hal_msp.o(i.HAL_MspInit)
    HAL_NVIC_DisableIRQ                      0x0800a115   Thumb Code    26  stm32l0xx_hal_cortex.o(i.HAL_NVIC_DisableIRQ)
    HAL_NVIC_EnableIRQ                       0x0800a135   Thumb Code    18  stm32l0xx_hal_cortex.o(i.HAL_NVIC_EnableIRQ)
    HAL_NVIC_SetPriority                     0x0800a14d   Thumb Code     8  stm32l0xx_hal_cortex.o(i.HAL_NVIC_SetPriority)
    HAL_NVIC_SystemReset                     0x0800a155   Thumb Code    18  stm32l0xx_hal_cortex.o(i.HAL_NVIC_SystemReset)
    HAL_PWREx_EnableFastWakeUp               0x0800a171   Thumb Code    12  stm32l0xx_hal_pwr_ex.o(i.HAL_PWREx_EnableFastWakeUp)
    HAL_PWREx_EnableUltraLowPower            0x0800a181   Thumb Code    12  stm32l0xx_hal_pwr_ex.o(i.HAL_PWREx_EnableUltraLowPower)
    HAL_PWR_EnableBkUpAccess                 0x0800a191   Thumb Code    12  stm32l0xx_hal_pwr.o(i.HAL_PWR_EnableBkUpAccess)
    HAL_PWR_EnterSTOPMode                    0x0800a1a1   Thumb Code    88  stm32l0xx_hal_pwr.o(i.HAL_PWR_EnterSTOPMode)
    HAL_RCCEx_PeriphCLKConfig                0x0800a205   Thumb Code   362  stm32l0xx_hal_rcc_ex.o(i.HAL_RCCEx_PeriphCLKConfig)
    HAL_RCC_ClockConfig                      0x0800a37d   Thumb Code   386  stm32l0xx_hal_rcc.o(i.HAL_RCC_ClockConfig)
    HAL_RCC_GetPCLK1Freq                     0x0800a519   Thumb Code    20  stm32l0xx_hal_rcc.o(i.HAL_RCC_GetPCLK1Freq)
    HAL_RCC_GetPCLK2Freq                     0x0800a539   Thumb Code    20  stm32l0xx_hal_rcc.o(i.HAL_RCC_GetPCLK2Freq)
    HAL_RCC_GetSysClockFreq                  0x0800a559   Thumb Code   108  stm32l0xx_hal_rcc.o(i.HAL_RCC_GetSysClockFreq)
    HAL_RCC_OscConfig                        0x0800a5d1   Thumb Code  1074  stm32l0xx_hal_rcc.o(i.HAL_RCC_OscConfig)
    HAL_RTCEx_AlarmBEventCallback            0x0800aa03   Thumb Code     2  stm32l0xx_hal_rtc_ex.o(i.HAL_RTCEx_AlarmBEventCallback)
    HAL_RTCEx_SetWakeUpTimer_IT              0x0800aa05   Thumb Code   238  stm32l0xx_hal_rtc_ex.o(i.HAL_RTCEx_SetWakeUpTimer_IT)
    HAL_RTCEx_WakeUpTimerEventCallback       0x0800aafd   Thumb Code    10  app_port.o(i.HAL_RTCEx_WakeUpTimerEventCallback)
    HAL_RTCEx_WakeUpTimerIRQHandler          0x0800ab09   Thumb Code    48  stm32l0xx_hal_rtc_ex.o(i.HAL_RTCEx_WakeUpTimerIRQHandler)
    HAL_RTC_AlarmAEventCallback              0x0800ab41   Thumb Code    64  app_port.o(i.HAL_RTC_AlarmAEventCallback)
    HAL_RTC_AlarmIRQHandler                  0x0800abb9   Thumb Code    88  stm32l0xx_hal_rtc.o(i.HAL_RTC_AlarmIRQHandler)
    HAL_RTC_DeactivateAlarm                  0x0800ac19   Thumb Code   184  stm32l0xx_hal_rtc.o(i.HAL_RTC_DeactivateAlarm)
    HAL_RTC_GetAlarm                         0x0800acd1   Thumb Code   134  stm32l0xx_hal_rtc.o(i.HAL_RTC_GetAlarm)
    HAL_RTC_GetDate                          0x0800ad5d   Thumb Code    68  stm32l0xx_hal_rtc.o(i.HAL_RTC_GetDate)
    HAL_RTC_GetTime                          0x0800ada1   Thumb Code    88  stm32l0xx_hal_rtc.o(i.HAL_RTC_GetTime)
    HAL_RTC_Init                             0x0800adfd   Thumb Code   184  stm32l0xx_hal_rtc.o(i.HAL_RTC_Init)
    HAL_RTC_MspInit                          0x0800aeb9   Thumb Code    40  rtc.o(i.HAL_RTC_MspInit)
    HAL_RTC_SetAlarm_IT                      0x0800aee9   Thumb Code   390  stm32l0xx_hal_rtc.o(i.HAL_RTC_SetAlarm_IT)
    HAL_RTC_SetDate                          0x0800b079   Thumb Code   190  stm32l0xx_hal_rtc.o(i.HAL_RTC_SetDate)
    HAL_RTC_SetTime                          0x0800b13d   Thumb Code   228  stm32l0xx_hal_rtc.o(i.HAL_RTC_SetTime)
    HAL_RTC_WaitForSynchro                   0x0800b225   Thumb Code    52  stm32l0xx_hal_rtc.o(i.HAL_RTC_WaitForSynchro)
    HAL_ResumeTick                           0x0800b259   Thumb Code    12  stm32l0xx_hal.o(i.HAL_ResumeTick)
    HAL_SYSTICK_Config                       0x0800b269   Thumb Code    38  stm32l0xx_hal_cortex.o(i.HAL_SYSTICK_Config)
    HAL_SuspendTick                          0x0800b299   Thumb Code    12  stm32l0xx_hal.o(i.HAL_SuspendTick)
    HAL_UARTEx_RxEventCallback               0x0800b2a9   Thumb Code     2  stm32l0xx_hal_uart.o(i.HAL_UARTEx_RxEventCallback)
    HAL_UARTEx_WakeupCallback                0x0800b2ab   Thumb Code     2  stm32l0xx_hal_uart_ex.o(i.HAL_UARTEx_WakeupCallback)
    HAL_UART_DMAStop                         0x0800b2ad   Thumb Code   126  stm32l0xx_hal_uart.o(i.HAL_UART_DMAStop)
    HAL_UART_DeInit                          0x0800b32b   Thumb Code    62  stm32l0xx_hal_uart.o(i.HAL_UART_DeInit)
    HAL_UART_ErrorCallback                   0x0800b369   Thumb Code    96  app_port.o(i.HAL_UART_ErrorCallback)
    HAL_UART_IRQHandler                      0x0800b431   Thumb Code   530  stm32l0xx_hal_uart.o(i.HAL_UART_IRQHandler)
    HAL_UART_Init                            0x0800b651   Thumb Code   106  stm32l0xx_hal_uart.o(i.HAL_UART_Init)
    HAL_UART_MspDeInit                       0x0800b6bd   Thumb Code   122  usart.o(i.HAL_UART_MspDeInit)
    HAL_UART_MspInit                         0x0800b74d   Thumb Code   354  usart.o(i.HAL_UART_MspInit)
    HAL_UART_Receive_DMA                     0x0800b8cd   Thumb Code    92  stm32l0xx_hal_uart.o(i.HAL_UART_Receive_DMA)
    HAL_UART_RxCpltCallback                  0x0800b92d   Thumb Code    40  app_port.o(i.HAL_UART_RxCpltCallback)
    HAL_UART_RxHalfCpltCallback              0x0800b9ad   Thumb Code     2  stm32l0xx_hal_uart.o(i.HAL_UART_RxHalfCpltCallback)
    HAL_UART_Transmit                        0x0800b9af   Thumb Code   210  stm32l0xx_hal_uart.o(i.HAL_UART_Transmit)
    HAL_UART_TxCpltCallback                  0x0800ba81   Thumb Code     2  stm32l0xx_hal_uart.o(i.HAL_UART_TxCpltCallback)
    HardFault_Handler                        0x0800ba85   Thumb Code    14  stm32l0xx_it.o(i.HardFault_Handler)
    LPUART1_IRQHandler                       0x0800bd01   Thumb Code    16  stm32l0xx_it.o(i.LPUART1_IRQHandler)
    LogMessage                               0x0800bd15   Thumb Code    30  app_sys.o(i.LogMessage)
    LogMessageWL                             0x0800bd3d   Thumb Code    18  app_sys.o(i.LogMessageWL)
    LogPrintf                                0x0800bd59   Thumb Code    74  app_sys.o(i.LogPrintf)
    MX_ADC_Init                              0x0800bdc9   Thumb Code   100  adc.o(i.MX_ADC_Init)
    MX_DMA_Init                              0x0800be39   Thumb Code    52  dma.o(i.MX_DMA_Init)
    MX_GPIO_Init                             0x0800be71   Thumb Code   238  gpio.o(i.MX_GPIO_Init)
    MX_I2C1_Init                             0x0800bf7d   Thumb Code    76  i2c.o(i.MX_I2C1_Init)
    MX_IWDG_Init                             0x0800bfd5   Thumb Code    32  iwdg.o(i.MX_IWDG_Init)
    MX_LPUART1_UART_Init                     0x0800c001   Thumb Code    46  usart.o(i.MX_LPUART1_UART_Init)
    MX_RTC_Init                              0x0800c039   Thumb Code    60  rtc.o(i.MX_RTC_Init)
    MX_USART1_UART_Init                      0x0800c07d   Thumb Code    48  usart.o(i.MX_USART1_UART_Init)
    MX_USART2_UART_Init                      0x0800c0b5   Thumb Code    48  usart.o(i.MX_USART2_UART_Init)
    N58_ChangeInvokeStatus                   0x0800c0ed   Thumb Code    24  app_net.o(i.N58_ChangeInvokeStatus)
    NMI_Handler                              0x0800c109   Thumb Code     2  stm32l0xx_it.o(i.NMI_Handler)
    PendSV_Handler                           0x0800c10b   Thumb Code     2  stm32l0xx_it.o(i.PendSV_Handler)
    RTC_Bcd2ToByte                           0x0800c10d   Thumb Code    16  stm32l0xx_hal_rtc.o(i.RTC_Bcd2ToByte)
    RTC_ByteToBcd2                           0x0800c11d   Thumb Code    24  stm32l0xx_hal_rtc.o(i.RTC_ByteToBcd2)
    RTC_EnterInitMode                        0x0800c135   Thumb Code    56  stm32l0xx_hal_rtc.o(i.RTC_EnterInitMode)
    RTC_IRQHandler                           0x0800c16d   Thumb Code    16  stm32l0xx_it.o(i.RTC_IRQHandler)
    SVC_Handler                              0x0800c181   Thumb Code     2  stm32l0xx_it.o(i.SVC_Handler)
    SysTick_Handler                          0x0800c183   Thumb Code     8  stm32l0xx_it.o(i.SysTick_Handler)
    SystemClock_Config                       0x0800c18d   Thumb Code   134  main.o(i.SystemClock_Config)
    SystemInit                               0x0800c21d   Thumb Code    66  system_stm32l0xx.o(i.SystemInit)
    UART_AdvFeatureConfig                    0x0800c275   Thumb Code   202  stm32l0xx_hal_uart.o(i.UART_AdvFeatureConfig)
    UART_CheckIdleState                      0x0800c341   Thumb Code    94  stm32l0xx_hal_uart.o(i.UART_CheckIdleState)
    UART_SetConfig                           0x0800c4c1   Thumb Code   492  stm32l0xx_hal_uart.o(i.UART_SetConfig)
    UART_Start_Receive_DMA                   0x0800c6d5   Thumb Code   128  stm32l0xx_hal_uart.o(i.UART_Start_Receive_DMA)
    UART_WaitOnFlagUntilTimeout              0x0800c761   Thumb Code   158  stm32l0xx_hal_uart.o(i.UART_WaitOnFlagUntilTimeout)
    USART1_IRQHandler                        0x0800c801   Thumb Code    16  stm32l0xx_it.o(i.USART1_IRQHandler)
    USART2_IRQHandler                        0x0800c815   Thumb Code    16  stm32l0xx_it.o(i.USART2_IRQHandler)
    UsartInterruptHandler                    0x0800c829   Thumb Code    20  app_port.o(i.UsartInterruptHandler)
    XINGSHENG_ID_ASCII_Decoding              0x0800c855   Thumb Code    38  app_sn.o(i.XINGSHENG_ID_ASCII_Decoding)
    XINGSHENG_ID_Decoder                     0x0800c87b   Thumb Code   132  app_sn.o(i.XINGSHENG_ID_Decoder)
    __0sprintf                               0x0800c901   Thumb Code    36  printfa.o(i.__0sprintf)
    __1sprintf                               0x0800c901   Thumb Code     0  printfa.o(i.__0sprintf)
    __2sprintf                               0x0800c901   Thumb Code     0  printfa.o(i.__0sprintf)
    __c89sprintf                             0x0800c901   Thumb Code     0  printfa.o(i.__0sprintf)
    sprintf                                  0x0800c901   Thumb Code     0  printfa.o(i.__0sprintf)
    __0vsprintf                              0x0800c929   Thumb Code    30  printfa.o(i.__0vsprintf)
    __1vsprintf                              0x0800c929   Thumb Code     0  printfa.o(i.__0vsprintf)
    __2vsprintf                              0x0800c929   Thumb Code     0  printfa.o(i.__0vsprintf)
    __c89vsprintf                            0x0800c929   Thumb Code     0  printfa.o(i.__0vsprintf)
    vsprintf                                 0x0800c929   Thumb Code     0  printfa.o(i.__0vsprintf)
    __ARM_clz                                0x0800c94d   Thumb Code    46  depilogue.o(i.__ARM_clz)
    __ARM_common_ll_muluu                    0x0800c97b   Thumb Code    48  stm32l0xx_hal_rcc.o(i.__ARM_common_ll_muluu)
    __ARM_common_switch8                     0x0800c9ab   Thumb Code    26  app_net.o(i.__ARM_common_switch8)
    __ARM_fpclassify                         0x0800c9c5   Thumb Code    40  fpclassify.o(i.__ARM_fpclassify)
    __aeabi_errno_addr                       0x0800ca35   Thumb Code     4  errno.o(i.__aeabi_errno_addr)
    __rt_errno_addr                          0x0800ca35   Thumb Code     0  errno.o(i.__aeabi_errno_addr)
    __ieee754_rem_pio2                       0x0800ca3d   Thumb Code   838  rred.o(i.__ieee754_rem_pio2)
    __kernel_cos                             0x0800cdd9   Thumb Code   224  cos_i.o(i.__kernel_cos)
    __kernel_poly                            0x0800cecd   Thumb Code   172  poly.o(i.__kernel_poly)
    __kernel_sin                             0x0800cf79   Thumb Code   222  sin_i.o(i.__kernel_sin)
    __mathlib_dbl_divzero                    0x0800d065   Thumb Code    16  dunder.o(i.__mathlib_dbl_divzero)
    __mathlib_dbl_infnan                     0x0800d079   Thumb Code    10  dunder.o(i.__mathlib_dbl_infnan)
    __mathlib_dbl_infnan2                    0x0800d083   Thumb Code     8  dunder.o(i.__mathlib_dbl_infnan2)
    __mathlib_dbl_invalid                    0x0800d08b   Thumb Code    16  dunder.o(i.__mathlib_dbl_invalid)
    __mathlib_dbl_overflow                   0x0800d09d   Thumb Code    16  dunder.o(i.__mathlib_dbl_overflow)
    __mathlib_dbl_underflow                  0x0800d0b1   Thumb Code    14  dunder.o(i.__mathlib_dbl_underflow)
    __read_errno                             0x0800d0c5   Thumb Code     6  errno.o(i.__read_errno)
    __scatterload_copy                       0x0800d0d1   Thumb Code    14  handlers.o(i.__scatterload_copy)
    __scatterload_null                       0x0800d0df   Thumb Code     2  handlers.o(i.__scatterload_null)
    __scatterload_zeroinit                   0x0800d0e1   Thumb Code    14  handlers.o(i.__scatterload_zeroinit)
    __set_errno                              0x0800d0f1   Thumb Code     6  errno.o(i.__set_errno)
    _is_digit                                0x0800d271   Thumb Code    14  scanf_fp.o(i._is_digit)
    addNewGPSInfo                            0x0800d9c9   Thumb Code   146  app_gps.o(i.addNewGPSInfo)
    alarmRequestClear                        0x0800da69   Thumb Code    10  app_task.o(i.alarmRequestClear)
    alarmRequestSet                          0x0800da79   Thumb Code    10  app_task.o(i.alarmRequestSet)
    alarmUploadRequest                       0x0800da89   Thumb Code   290  app_task.o(i.alarmUploadRequest)
    appBleCRecv                              0x0800dccd   Thumb Code   124  app_ble.o(i.appBleCRecv)
    appBleInfoReset                          0x0800dd65   Thumb Code    12  app_ble.o(i.appBleInfoReset)
    appBlePRecv                              0x0800dd75   Thumb Code   126  app_ble.o(i.appBlePRecv)
    appBleSendData                           0x0800de05   Thumb Code    48  app_ble.o(i.appBleSendData)
    appUartConfig                            0x0800de45   Thumb Code   200  app_port.o(i.appUartConfig)
    appUartSend                              0x0800df85   Thumb Code    20  app_port.o(i.appUartSend)
    asin                                     0x0800dfc5   Thumb Code   574  asin.o(i.asin)
    atCmdCmGetParser                         0x0800e239   Thumb Code    24  app_atcmd.o(i.atCmdCmGetParser)
    atCmdDebugLevelParser                    0x0800e265   Thumb Code    34  app_atcmd.o(i.atCmdDebugLevelParser)
    atCmdFmpcAllParse                        0x0800e66d   Thumb Code    32  app_atcmd.o(i.atCmdFmpcAllParse)
    atCmdFmpcCMParse                         0x0800e68d   Thumb Code    30  app_atcmd.o(i.atCmdFmpcCMParse)
    atCmdFmpcChkpParse                       0x0800e6c1   Thumb Code    26  app_atcmd.o(i.atCmdFmpcChkpParse)
    atCmdFmpcIMSIParse                       0x0800e6f9   Thumb Code    48  app_atcmd.o(i.atCmdFmpcIMSIParse)
    atCmdIMEIParse                           0x0800e771   Thumb Code    48  app_atcmd.o(i.atCmdIMEIParse)
    atCmdParaseFunction                      0x0800e7d9   Thumb Code   522  app_atcmd.o(i.atCmdParaseFunction)
    atCmdZTSNParse                           0x0800eae1   Thumb Code    60  app_atcmd.o(i.atCmdZTSNParse)
    atof                                     0x0800eb3d   Thumb Code    42  atof.o(i.atof)
    autoSleepTask                            0x0800eb69   Thumb Code   236  app_task.o(i.autoSleepTask)
    calculateDistanceOfPoint                 0x0800ec69   Thumb Code   126  app_gpsarithmetic.o(i.calculateDistanceOfPoint)
    calculateTheDistanceBetweenTwoPonits     0x0800ed11   Thumb Code   248  app_gpsarithmetic.o(i.calculateTheDistanceBetweenTwoPonits)
    calculateTheGPSCornerPoint               0x0800ee1d   Thumb Code   274  app_gpsarithmetic.o(i.calculateTheGPSCornerPoint)
    changeByteArrayToHexString               0x0800ef4d   Thumb Code    60  app_sys.o(i.changeByteArrayToHexString)
    changeHexStringToByteArray               0x0800ef89   Thumb Code    72  app_sys.o(i.changeHexStringToByteArray)
    changeHexStringToByteArray_10in          0x0800efd1   Thumb Code    76  app_sys.o(i.changeHexStringToByteArray_10in)
    changeUTCTimeToLocalTime                 0x0800f01d   Thumb Code   336  app_sys.o(i.changeUTCTimeToLocalTime)
    charstrToHexValue                        0x0800f16d   Thumb Code   142  app_nmea.o(i.charstrToHexValue)
    clearHbtTimer                            0x0800f201   Thumb Code    26  app_serverprotocol.o(i.clearHbtTimer)
    clearInstrucionRequest                   0x0800f221   Thumb Code    12  app_atcmd.o(i.clearInstrucionRequest)
    closeModuleGPS                           0x0800f231   Thumb Code    12  app_net.o(i.closeModuleGPS)
    cos                                      0x0800f26d   Thumb Code   142  cos.o(i.cos)
    createProtocol16                         0x0800f305   Thumb Code   174  app_serverprotocol.o(i.createProtocol16)
    createProtocol19                         0x0800f3b9   Thumb Code   182  app_serverprotocol.o(i.createProtocol19)
    createProtocol62                         0x0800f475   Thumb Code   130  app_serverprotocol.o(i.createProtocol62)
    createProtocolF1                         0x0800f509   Thumb Code    64  app_serverprotocol.o(i.createProtocolF1)
    createProtocolF3                         0x0800f559   Thumb Code   232  app_serverprotocol.o(i.createProtocolF3)
    createProtocol_01                        0x0800f6eb   Thumb Code    56  app_serverprotocol.o(i.createProtocol_01)
    createProtocol_12                        0x0800f725   Thumb Code   114  app_serverprotocol.o(i.createProtocol_12)
    createProtocol_13                        0x0800f7a1   Thumb Code   174  app_serverprotocol.o(i.createProtocol_13)
    createProtocol_21                        0x0800f85d   Thumb Code    72  app_serverprotocol.o(i.createProtocol_21)
    createProtocol_8A                        0x0800f8a9   Thumb Code    34  app_serverprotocol.o(i.createProtocol_8A)
    createSystemTask                         0x0800f8cb   Thumb Code    16  app_kernal.o(i.createSystemTask)
    csqRequest                               0x0800f8db   Thumb Code    12  app_net.o(i.csqRequest)
    decryptSN                                0x0800f8e9   Thumb Code   158  app_sn.o(i.decryptSN)
    deleteMessage                            0x0800f98d   Thumb Code    12  app_net.o(i.deleteMessage)
    disPlaySystemTime                        0x0800f99d   Thumb Code    76  app_port.o(i.disPlaySystemTime)
    distinguishOK                            0x0800fa11   Thumb Code    16  app_sys.o(i.distinguishOK)
    do123Instruction                         0x0800fa25   Thumb Code   100  app_instructioncmd.o(i.do123Instruction)
    doACCCTLGNSSInstrucion                   0x0800fae5   Thumb Code   128  app_instructioncmd.o(i.doACCCTLGNSSInstrucion)
    doAPNInstruction                         0x0800fc05   Thumb Code   224  app_instructioncmd.o(i.doAPNInstruction)
    doAdccalInstrucion                       0x0800fd3d   Thumb Code   186  app_instructioncmd.o(i.doAdccalInstrucion)
    doAlarmModeInstrucion                    0x0800fe4d   Thumb Code   124  app_instructioncmd.o(i.doAlarmModeInstrucion)
    doAnswerInstrucion                       0x0800ffbd   Thumb Code   100  app_instructioncmd.o(i.doAnswerInstrucion)
    doBFInstruction                          0x08010085   Thumb Code    44  app_instructioncmd.o(i.doBFInstruction)
    doCFInstruction                          0x080100b9   Thumb Code    44  app_instructioncmd.o(i.doCFInstruction)
    doDebugInstrucion                        0x080100ed   Thumb Code   522  app_instructioncmd.o(i.doDebugInstrucion)
    doFactoryInstrucion                      0x08010429   Thumb Code    66  app_instructioncmd.o(i.doFactoryInstrucion)
    doFactoryTestInstruction                 0x080104bd   Thumb Code   320  app_instructioncmd.o(i.doFactoryTestInstruction)
    doFenceInstrucion                        0x08010695   Thumb Code    74  app_instructioncmd.o(i.doFenceInstrucion)
    doHbtInstruction                         0x08010731   Thumb Code    82  app_instructioncmd.o(i.doHbtInstruction)
    doJTCYCLEInstrucion                      0x080107f9   Thumb Code   134  app_instructioncmd.o(i.doJTCYCLEInstrucion)
    doJtInstruction                          0x08010911   Thumb Code   194  app_instructioncmd.o(i.doJtInstruction)
    doLEDInstruction                         0x08010a35   Thumb Code    94  app_instructioncmd.o(i.doLEDInstruction)
    doLOWWInstruction                        0x08010ac5   Thumb Code   150  app_instructioncmd.o(i.doLOWWInstruction)
    doModeInstruction                        0x08010b8d   Thumb Code   836  app_instructioncmd.o(i.doModeInstruction)
    doPOITYPEInstruction                     0x08010fb9   Thumb Code   122  app_instructioncmd.o(i.doPOITYPEInstruction)
    doParamInstruction                       0x080110e9   Thumb Code   388  app_instructioncmd.o(i.doParamInstruction)
    doPdopInstrucion                         0x0801135d   Thumb Code   108  app_instructioncmd.o(i.doPdopInstrucion)
    doResetInstruction                       0x08011479   Thumb Code    56  app_instructioncmd.o(i.doResetInstruction)
    doSNInstruction                          0x080114e1   Thumb Code   124  app_instructioncmd.o(i.doSNInstruction)
    doServerInstruction                      0x08011591   Thumb Code    88  app_instructioncmd.o(i.doServerInstruction)
    doSetblemacInstrucion                    0x08011609   Thumb Code   178  app_instructioncmd.o(i.doSetblemacInstrucion)
    doSmsreplyInstrucion                     0x0801177d   Thumb Code    94  app_instructioncmd.o(i.doSmsreplyInstrucion)
    doStatusInstruction                      0x08011825   Thumb Code   216  app_instructioncmd.o(i.doStatusInstruction)
    doTTSInstruction                         0x08011985   Thumb Code   144  app_instructioncmd.o(i.doTTSInstruction)
    doTurnAlgInstrucion                      0x08011a69   Thumb Code   100  app_instructioncmd.o(i.doTurnAlgInstrucion)
    doUPSInstruction                         0x08011b2d   Thumb Code   112  app_instructioncmd.o(i.doUPSInstruction)
    doUTCInstruction                         0x08011be1   Thumb Code   138  app_instructioncmd.o(i.doUTCInstruction)
    doVersionInstruction                     0x08011cc5   Thumb Code    46  app_instructioncmd.o(i.doVersionInstruction)
    dorequestSend123                         0x08011f35   Thumb Code   152  app_instructioncmd.o(i.dorequestSend123)
    exitNetCtl                               0x080121c5   Thumb Code    54  app_task.o(i.exitNetCtl)
    feedWdt                                  0x08012241   Thumb Code    10  app_port.o(i.feedWdt)
    free                                     0x08012251   Thumb Code    80  malloc.o(i.free)
    getBatVoltage                            0x080122a5   Thumb Code    58  app_task.o(i.getBatVoltage)
    getCharIndex                             0x08012351   Thumb Code    26  app_sys.o(i.getCharIndex)
    getCharIndexWithNum                      0x0801236b   Thumb Code    40  app_sys.o(i.getCharIndexWithNum)
    getCurrentDateTimeOfSec                  0x08012393   Thumb Code    70  app_port.o(i.getCurrentDateTimeOfSec)
    getCurrentGPSInfo                        0x080123d9   Thumb Code     4  app_gps.o(i.getCurrentGPSInfo)
    getGSPfifo                               0x080123e1   Thumb Code     4  app_gps.o(i.getGSPfifo)
    getLastFixedGPSInfo                      0x080123e9   Thumb Code     4  app_gps.o(i.getLastFixedGPSInfo)
    getModuleICCID                           0x080123f1   Thumb Code     4  app_net.o(i.getModuleICCID)
    getModuleIMEI                            0x080123f9   Thumb Code     4  app_net.o(i.getModuleIMEI)
    getModuleIMSI                            0x08012401   Thumb Code     4  app_net.o(i.getModuleIMSI)
    getModuleRssi                            0x08012409   Thumb Code     6  app_net.o(i.getModuleRssi)
    getRtcDateTime                           0x08012415   Thumb Code    82  app_port.o(i.getRtcDateTime)
    getTerminalAccState                      0x0801246d   Thumb Code    10  app_sys.o(i.getTerminalAccState)
    getTerminalChargeState                   0x0801247d   Thumb Code    10  app_sys.o(i.getTerminalChargeState)
    getVoltageAdcValue                       0x0801248d   Thumb Code    52  app_port.o(i.getVoltageAdcValue)
    gpsChangeFsmState                        0x080124c5   Thumb Code     6  app_task.o(i.gpsChangeFsmState)
    gpsClearCurrentGPSInfo                   0x080124d1   Thumb Code    34  app_gps.o(i.gpsClearCurrentGPSInfo)
    gpsFilter                                0x080124f9   Thumb Code    62  app_gps.o(i.gpsFilter)
    gpsIsRun                                 0x08012541   Thumb Code    16  app_gpsrestore.o(i.gpsIsRun)
    gpsNoRestoreFileToRead                   0x080125b1   Thumb Code     8  app_gpsrestore.o(i.gpsNoRestoreFileToRead)
    gpsOutputCheckTask                       0x080125bd   Thumb Code    66  app_task.o(i.gpsOutputCheckTask)
    gpsRequestClear                          0x08012619   Thumb Code    36  app_task.o(i.gpsRequestClear)
    gpsRequestGet                            0x080126b1   Thumb Code    10  app_task.o(i.gpsRequestGet)
    gpsRequestSet                            0x08012761   Thumb Code    36  app_task.o(i.gpsRequestSet)
    gpsRequestTask                           0x080127a1   Thumb Code   156  app_task.o(i.gpsRequestTask)
    gpsRestoreDataSend                       0x08012849   Thumb Code   230  app_serverprotocol.o(i.gpsRestoreDataSend)
    gpsRestoreWriteData                      0x08012941   Thumb Code    68  app_gpsrestore.o(i.gpsRestoreWriteData)
    gpsUpdateRestoreFileNameAndTotalSize     0x080129bd   Thumb Code    36  app_gpsrestore.o(i.gpsUpdateRestoreFileNameAndTotalSize)
    gpsUploadPointToServer                   0x080129e5   Thumb Code    90  app_gpsarithmetic.o(i.gpsUploadPointToServer)
    gpsUplodOnePointTask                     0x08012a75   Thumb Code   112  app_task.o(i.gpsUplodOnePointTask)
    gsensorConfig                            0x08012aed   Thumb Code    84  app_port.o(i.gsensorConfig)
    gsensorInterrupt                         0x08012b79   Thumb Code    10  app_port.o(i.gsensorInterrupt)
    gsensorIntervalCheck                     0x08012b89   Thumb Code   160  app_task.o(i.gsensorIntervalCheck)
    gsensorTapTask                           0x08012c4d   Thumb Code   294  app_task.o(i.gsensorTapTask)
    hearbeatRequest                          0x08012dc5   Thumb Code   120  app_task.o(i.hearbeatRequest)
    initLastPoint                            0x08012e4d   Thumb Code    50  app_gpsarithmetic.o(i.initLastPoint)
    instructionParase                        0x08012e9d   Thumb Code    76  app_atcmd.o(i.instructionParase)
    isModulePowerOn                          0x08012eed   Thumb Code     6  app_net.o(i.isModulePowerOn)
    isModuleRunNormal                        0x08012ef9   Thumb Code    16  app_net.o(i.isModuleRunNormal)
    isProtocolReday                          0x08012f0d   Thumb Code    26  app_serverprotocol.o(i.isProtocolReday)
    kernalRun                                0x08012f2d   Thumb Code   148  app_kernal.o(i.kernalRun)
    latitude_to_double                       0x08012fdd   Thumb Code   152  app_nmea.o(i.latitude_to_double)
    lbsUploadRequestTask                     0x08013085   Thumb Code    80  app_task.o(i.lbsUploadRequestTask)
    ldrInterrupt                             0x080130dd   Thumb Code    90  app_port.o(i.ldrInterrupt)
    ledRunTask                               0x08013165   Thumb Code    12  app_task.o(i.ledRunTask)
    longitude_to_double                      0x08013189   Thumb Code   152  app_nmea.o(i.longitude_to_double)
    lowPowerConfig                           0x08013231   Thumb Code    24  app_port.o(i.lowPowerConfig)
    main                                     0x0801324d   Thumb Code    42  main.o(i.main)
    malloc                                   0x08013279   Thumb Code    92  malloc.o(i.malloc)
    mir3da_init                              0x080132e5   Thumb Code   200  app_mir3da.o(i.mir3da_init)
    mir3da_open_interrupt                    0x080133f9   Thumb Code    38  app_mir3da.o(i.mir3da_open_interrupt)
    mir3da_register_read                     0x08013421   Thumb Code    30  app_mir3da.o(i.mir3da_register_read)
    mir3da_register_write                    0x08013449   Thumb Code    38  app_mir3da.o(i.mir3da_register_write)
    mir3da_set_enable                        0x08013479   Thumb Code    20  app_mir3da.o(i.mir3da_set_enable)
    modulePinConfig                          0x0801353d   Thumb Code   138  app_port.o(i.modulePinConfig)
    modulePowerOff                           0x08013601   Thumb Code    46  app_net.o(i.modulePowerOff)
    modulePowerOn                            0x08013655   Thumb Code    60  app_net.o(i.modulePowerOn)
    moduleReset                              0x080136b5   Thumb Code    72  app_net.o(i.moduleReset)
    moduleResponParaser                      0x08013759   Thumb Code   494  app_net.o(i.moduleResponParaser)
    moduleRiSignal                           0x08013991   Thumb Code    12  app_port.o(i.moduleRiSignal)
    myAppConfig                              0x080139ad   Thumb Code    60  app_user.o(i.myAppConfig)
    myAppRun                                 0x08013a01   Thumb Code    16  app_user.o(i.myAppRun)
    my_getstrindex                           0x08013a11   Thumb Code    88  app_sys.o(i.my_getstrindex)
    my_strpach                               0x08013a69   Thumb Code    46  app_sys.o(i.my_strpach)
    my_strstr                                0x08013a97   Thumb Code    54  app_sys.o(i.my_strstr)
    n58ATA                                   0x08013b09   Thumb Code    20  app_net.o(i.n58ATA)
    n58AutoATA                               0x08013b21   Thumb Code    46  app_net.o(i.n58AutoATA)
    n58CCIDParase                            0x08013b69   Thumb Code   100  app_net.o(i.n58CCIDParase)
    n58CGSNParase                            0x08013be9   Thumb Code    72  app_net.o(i.n58CGSNParase)
    n58CIMIParase                            0x08013c3d   Thumb Code   174  app_net.o(i.n58CIMIParase)
    n58CMGRparse                             0x08013d1d   Thumb Code   182  app_net.o(i.n58CMGRparse)
    n58CMTIparase                            0x08013df5   Thumb Code   102  app_net.o(i.n58CMTIparase)
    n58CREGparase                            0x08013e79   Thumb Code   136  app_net.o(i.n58CREGparase)
    n58CSQparase                             0x08013f1d   Thumb Code   108  app_net.o(i.n58CSQparase)
    n58FSLISTparase                          0x08013fa5   Thumb Code   336  app_net.o(i.n58FSLISTparase)
    n58FswrParase                            0x08014135   Thumb Code   250  app_net.o(i.n58FswrParase)
    n58GmrParser                             0x08014281   Thumb Code    66  app_net.o(i.n58GmrParser)
    n58MygpsposParaser                       0x080142e1   Thumb Code    32  app_net.o(i.n58MygpsposParaser)
    n58MygpsstateParase                      0x0801430d   Thumb Code    90  app_net.o(i.n58MygpsstateParase)
    n58MylacidParse                          0x0801438d   Thumb Code   178  app_net.o(i.n58MylacidParse)
    n58NwblecconParser                       0x08014475   Thumb Code    64  app_net.o(i.n58NwblecconParser)
    n58NwbleroleParser                       0x080144d5   Thumb Code    78  app_net.o(i.n58NwbleroleParser)
    n58NwbtblepwrParser                      0x08014555   Thumb Code    78  app_net.o(i.n58NwbtblepwrParser)
    n58NwurcblestatParser                    0x080145d1   Thumb Code    72  app_net.o(i.n58NwurcblestatParser)
    n58TCPRecvparase                         0x0801464d   Thumb Code   164  app_net.o(i.n58TCPRecvparase)
    n58TCPcloseparase                        0x0801470d   Thumb Code    92  app_net.o(i.n58TCPcloseparase)
    n58TCPsetupparase                        0x0801479d   Thumb Code   234  app_net.o(i.n58TCPsetupparase)
    n58WIFISCANParse                         0x0801499d   Thumb Code   174  app_net.o(i.n58WIFISCANParse)
    n58cgattparase                           0x08014a6d   Thumb Code    52  app_net.o(i.n58cgattparase)
    n58cgdcontparase                         0x08014ab9   Thumb Code    22  app_net.o(i.n58cgdcontparase)
    n58mysysteminfoparase                    0x08014ad5   Thumb Code    44  app_net.o(i.n58mysysteminfoparase)
    n58xgauthparase                          0x08014b11   Thumb Code    22  app_net.o(i.n58xgauthparase)
    n58xiicparase                            0x08014b2d   Thumb Code    22  app_net.o(i.n58xiicparase)
    n58xiicqueryparase                       0x08014b49   Thumb Code   136  app_net.o(i.n58xiicqueryparase)
    netConnectReset                          0x08014bed   Thumb Code    10  app_serverprotocol.o(i.netConnectReset)
    netExitStopMode                          0x08014bfd   Thumb Code    34  app_net.o(i.netExitStopMode)
    netWorkModuleRunOk                       0x08014d11   Thumb Code    16  app_net.o(i.netWorkModuleRunOk)
    nmeaParse                                0x08014d25   Thumb Code    80  app_nmea.o(i.nmeaParse)
    openModuleGPS                            0x08014d75   Thumb Code    20  app_net.o(i.openModuleGPS)
    outPutNodeCmd                            0x08014d91   Thumb Code    78  app_net.o(i.outPutNodeCmd)
    paramDefaultInit                         0x08014e75   Thumb Code   310  app_param.o(i.paramDefaultInit)
    paramGetAdcCal                           0x08014fed   Thumb Code    24  app_param.o(i.paramGetAdcCal)
    paramGetApnName                          0x0801500d   Thumb Code    24  app_param.o(i.paramGetApnName)
    paramGetApnPswd                          0x08015029   Thumb Code    24  app_param.o(i.paramGetApnPswd)
    paramGetApnUser                          0x08015045   Thumb Code    24  app_param.o(i.paramGetApnUser)
    paramGetBleMac                           0x08015061   Thumb Code    26  app_param.o(i.paramGetBleMac)
    paramGetCM                               0x08015081   Thumb Code     6  app_param.o(i.paramGetCM)
    paramGetCodeVersion                      0x0801508d   Thumb Code    24  app_param.o(i.paramGetCodeVersion)
    paramGetGPSUploadInterval                0x080150a9   Thumb Code     8  app_param.o(i.paramGetGPSUploadInterval)
    paramGetHeartbeatInterval                0x080150b5   Thumb Code     8  app_param.o(i.paramGetHeartbeatInterval)
    paramGetLoww                             0x080150c1   Thumb Code     8  app_param.o(i.paramGetLoww)
    paramGetMode2cnt                         0x080150cd   Thumb Code    10  app_param.o(i.paramGetMode2cnt)
    paramGetServer                           0x080150e1   Thumb Code    34  app_param.o(i.paramGetServer)
    paramGetSnNumber                         0x0801510d   Thumb Code    28  app_param.o(i.paramGetSnNumber)
    paramGetUPSServer                        0x0801512d   Thumb Code    34  app_param.o(i.paramGetUPSServer)
    paramInit                                0x08015155   Thumb Code   384  app_param.o(i.paramInit)
    paramSaveACCCTLGNSS                      0x08015301   Thumb Code    18  app_param.o(i.paramSaveACCCTLGNSS)
    paramSaveAdcCal                          0x08015319   Thumb Code    22  app_param.o(i.paramSaveAdcCal)
    paramSaveAlarmTime                       0x08015339   Thumb Code    36  app_param.o(i.paramSaveAlarmTime)
    paramSaveApnName                         0x08015361   Thumb Code    60  app_param.o(i.paramSaveApnName)
    paramSaveApnPswd                         0x0801539d   Thumb Code    60  app_param.o(i.paramSaveApnPswd)
    paramSaveApnUser                         0x080153d9   Thumb Code    60  app_param.o(i.paramSaveApnUser)
    paramSaveAutoAnswer                      0x08015415   Thumb Code    18  app_param.o(i.paramSaveAutoAnswer)
    paramSaveBF                              0x0801542d   Thumb Code    18  app_param.o(i.paramSaveBF)
    paramSaveBleMac                          0x08015445   Thumb Code    62  app_param.o(i.paramSaveBleMac)
    paramSaveCM                              0x08015483   Thumb Code    14  app_param.o(i.paramSaveCM)
    paramSaveCodeVersion                     0x08015491   Thumb Code    38  app_param.o(i.paramSaveCodeVersion)
    paramSaveFence                           0x080154b9   Thumb Code    18  app_param.o(i.paramSaveFence)
    paramSaveGPSUploadInterval               0x080154d1   Thumb Code    12  app_param.o(i.paramSaveGPSUploadInterval)
    paramSaveHardFault                       0x080154e1   Thumb Code    16  app_param.o(i.paramSaveHardFault)
    paramSaveHeartbeatInterval               0x080154f5   Thumb Code    12  app_param.o(i.paramSaveHeartbeatInterval)
    paramSaveInterval                        0x08015505   Thumb Code    14  app_param.o(i.paramSaveInterval)
    paramSaveLedCtl                          0x0801551d   Thumb Code    18  app_param.o(i.paramSaveLedCtl)
    paramSaveLightAlarmMode                  0x08015535   Thumb Code    18  app_param.o(i.paramSaveLightAlarmMode)
    paramSaveLoww                            0x0801554d   Thumb Code    14  app_param.o(i.paramSaveLoww)
    paramSaveMallocFault                     0x0801555d   Thumb Code    16  app_param.o(i.paramSaveMallocFault)
    paramSaveMode                            0x08015571   Thumb Code    18  app_param.o(i.paramSaveMode)
    paramSaveMode1GapDay                     0x08015589   Thumb Code    18  app_param.o(i.paramSaveMode1GapDay)
    paramSaveMode1Timer                      0x080155a1   Thumb Code    18  app_param.o(i.paramSaveMode1Timer)
    paramSaveMode2cnt                        0x080155b9   Thumb Code    16  app_param.o(i.paramSaveMode2cnt)
    paramSaveNoNetWakeUpMinutes              0x080155d1   Thumb Code    18  app_param.o(i.paramSaveNoNetWakeUpMinutes)
    paramSavePdop                            0x080155e9   Thumb Code    16  app_param.o(i.paramSavePdop)
    paramSavePoitype                         0x08015601   Thumb Code    18  app_param.o(i.paramSavePoitype)
    paramSaveServer                          0x08015619   Thumb Code    74  app_param.o(i.paramSaveServer)
    paramSaveSmsreply                        0x08015663   Thumb Code    14  app_param.o(i.paramSaveSmsreply)
    paramSaveSnNumber                        0x08015671   Thumb Code    30  app_param.o(i.paramSaveSnNumber)
    paramSaveTurnalg                         0x08015691   Thumb Code    18  app_param.o(i.paramSaveTurnalg)
    paramSaveUPSServer                       0x080156a9   Thumb Code    70  app_param.o(i.paramSaveUPSServer)
    paramSaveUTC                             0x080156f1   Thumb Code    18  app_param.o(i.paramSaveUTC)
    paramSaveUpdateStatus                    0x08015709   Thumb Code    16  app_param.o(i.paramSaveUpdateStatus)
    paraseInstructionToItem                  0x0801571d   Thumb Code   232  app_sys.o(i.paraseInstructionToItem)
    parseGPS                                 0x08015851   Thumb Code   268  app_nmea.o(i.parseGPS)
    parse_GGA                                0x08015989   Thumb Code    24  app_nmea.o(i.parse_GGA)
    parse_GSA                                0x080159a5   Thumb Code    54  app_nmea.o(i.parse_GSA)
    parse_GSV                                0x080159e1   Thumb Code   426  app_nmea.o(i.parse_GSV)
    parse_RMC                                0x08015ba5   Thumb Code   326  app_nmea.o(i.parse_RMC)
    pollUartData                             0x08015cfd   Thumb Code    26  app_port.o(i.pollUartData)
    pow                                      0x08015d1d   Thumb Code  2548  pow.o(i.pow)
    protocolFsmStateChange                   0x08016719   Thumb Code    18  app_serverprotocol.o(i.protocolFsmStateChange)
    protocolRxParase                         0x0801692d   Thumb Code   212  app_serverprotocol.o(i.protocolRxParase)
    reConnectServer                          0x08016a39   Thumb Code    10  app_net.o(i.reConnectServer)
    reCover123InstructionId                  0x08016a45   Thumb Code    22  app_serverprotocol.o(i.reCover123InstructionId)
    readInterruptConfig                      0x08016a61   Thumb Code    60  app_mir3da.o(i.readInterruptConfig)
    read_gsensor_id                          0x08016aa9   Thumb Code    98  app_mir3da.o(i.read_gsensor_id)
    recCycleStart                            0x08016b59   Thumb Code     8  app_rec.o(i.recCycleStart)
    recCycleStop                             0x08016b65   Thumb Code    20  app_rec.o(i.recCycleStop)
    recCycleTask                             0x08016b7d   Thumb Code    78  app_rec.o(i.recCycleTask)
    recGetRecStruct                          0x08016bf1   Thumb Code     4  app_rec.o(i.recGetRecStruct)
    recIsRun                                 0x08016bf9   Thumb Code    16  app_rec.o(i.recIsRun)
    recNoFileToread                          0x08016c0d   Thumb Code    18  app_rec.o(i.recNoFileToread)
    recReadFileOk                            0x08016c35   Thumb Code     8  app_rec.o(i.recReadFileOk)
    recRecordUploadTask                      0x08016c41   Thumb Code   150  app_rec.o(i.recRecordUploadTask)
    recStart                                 0x08016cfd   Thumb Code   104  app_rec.o(i.recStart)
    recStop                                  0x08016da1   Thumb Code    30  app_rec.o(i.recStop)
    recStopAndUpload                         0x08016dd9   Thumb Code    14  app_rec.o(i.recStopAndUpload)
    recUpdateFileName                        0x08016ded   Thumb Code    16  app_rec.o(i.recUpdateFileName)
    recUpdateFileSize                        0x08016e01   Thumb Code    64  app_rec.o(i.recUpdateFileSize)
    resIsCycleRuning                         0x08016e59   Thumb Code     6  app_rec.o(i.resIsCycleRuning)
    save123InstructionId                     0x08016e65   Thumb Code    22  app_serverprotocol.o(i.save123InstructionId)
    sendDataToServer                         0x08016e81   Thumb Code    36  app_net.o(i.sendDataToServer)
    sendMessage                              0x08016ead   Thumb Code    60  app_net.o(i.sendMessage)
    sendMessageWithDifMode                   0x08016ef9   Thumb Code   118  app_instructioncmd.o(i.sendMessageWithDifMode)
    sendModuleCmd                            0x08016ff1   Thumb Code   154  app_net.o(i.sendModuleCmd)
    sendProtocolToServer                     0x080170c1   Thumb Code   248  app_serverprotocol.o(i.sendProtocolToServer)
    setNextAlarmTime                         0x080171e1   Thumb Code   304  app_port.o(i.setNextAlarmTime)
    setNextWakeUpTime                        0x08017321   Thumb Code   212  app_port.o(i.setNextWakeUpTime)
    showgpsinfo                              0x080174b1   Thumb Code   320  app_nmea.o(i.showgpsinfo)
    sin                                      0x08017721   Thumb Code   146  sin.o(i.sin)
    sqrt                                     0x080177bd   Thumb Code    66  sqrt.o(i.sqrt)
    startTimer                               0x08017805   Thumb Code    72  app_kernal.o(i.startTimer)
    stopTimer                                0x08017875   Thumb Code    76  app_kernal.o(i.stopTimer)
    systemModeRunStart                       0x080178dd   Thumb Code    32  app_task.o(i.systemModeRunStart)
    systemModeRunTask                        0x0801792d   Thumb Code   524  app_task.o(i.systemModeRunTask)
    systemRequestClear                       0x08017b49   Thumb Code    10  app_task.o(i.systemRequestClear)
    systemRequestSet                         0x08017b59   Thumb Code    10  app_task.o(i.systemRequestSet)
    systemRequestTask                        0x08017b69   Thumb Code   202  app_task.o(i.systemRequestTask)
    systemShutDown                           0x08017cd9   Thumb Code   118  app_task.o(i.systemShutDown)
    systemTaskResume                         0x08017d69   Thumb Code    52  app_kernal.o(i.systemTaskResume)
    systemTaskSuspend                        0x08017db9   Thumb Code    50  app_kernal.o(i.systemTaskSuspend)
    taskRunInOneSecond                       0x08017e09   Thumb Code    60  app_task.o(i.taskRunInOneSecond)
    terminalAccoff                           0x08017e49   Thumb Code    12  app_sys.o(i.terminalAccoff)
    terminalAccon                            0x08017e59   Thumb Code    12  app_sys.o(i.terminalAccon)
    terminalAlarmSet                         0x08017e69   Thumb Code    16  app_sys.o(i.terminalAlarmSet)
    terminalCharge                           0x08017e7d   Thumb Code    12  app_sys.o(i.terminalCharge)
    terminalGPSFixed                         0x08017e8d   Thumb Code    12  app_sys.o(i.terminalGPSFixed)
    terminalGPSUnFixed                       0x08017e9d   Thumb Code    12  app_sys.o(i.terminalGPSUnFixed)
    terminalunCharge                         0x08017ead   Thumb Code    12  app_sys.o(i.terminalunCharge)
    updateLocalRTCTime                       0x08017f49   Thumb Code    98  app_gps.o(i.updateLocalRTCTime)
    updateRTCdatetime                        0x08017fb5   Thumb Code   126  app_port.o(i.updateRTCdatetime)
    updateRTCtimeRequest                     0x0801806d   Thumb Code    12  app_sys.o(i.updateRTCtimeRequest)
    updateSystemLedStatus                    0x0801807d   Thumb Code   108  app_task.o(i.updateSystemLedStatus)
    updateSystemStartTime                    0x080180ed   Thumb Code     8  app_sys.o(i.updateSystemStartTime)
    uploadRequestInMode4                     0x080180f9   Thumb Code   136  app_task.o(i.uploadRequestInMode4)
    voltageCheckTask                         0x08018241   Thumb Code   542  app_task.o(i.voltageCheckTask)
    wdtProcess                               0x0801859d   Thumb Code   182  app_task.o(i.wdtProcess)
    wifiUploadRequestTask                    0x080186d9   Thumb Code    38  app_task.o(i.wifiUploadRequestTask)
    ztvm_encrypt_des                         0x0801870d   Thumb Code    86  app_sn.o(i.ztvm_encrypt_des)
    ztvm_encrypt_undes                       0x08018763   Thumb Code    88  app_sn.o(i.ztvm_encrypt_undes)
    ztvm_encrypt_untrides                    0x080187bb   Thumb Code    40  app_sn.o(i.ztvm_encrypt_untrides)
    n58_cmd_table                            0x080189fa   Data        1176  app_net.o(.constdata)
    atcmdtable                               0x08018e92   Data         323  app_atcmd.o(.constdata)
    instructiontable                         0x08018fd5   Data         544  app_atcmd.o(.constdata)
    AHBPrescTable                            0x0801955f   Data          16  system_stm32l0xx.o(.constdata)
    PLLMulTable                              0x0801956f   Data           9  system_stm32l0xx.o(.constdata)
    APBPrescTable                            0x08019578   Data           8  system_stm32l0xx.o(.constdata)
    __mathlib_zero                           0x08019698   Data           8  qnan.o(.constdata)
    __ctype_table                            0x08019790   Data         129  ctype_o.o(.constdata)
    Region$$Table$$Base                      0x08019a34   Number         0  anon$$obj.o(Region$$Table)
    Region$$Table$$Limit                     0x08019a54   Number         0  anon$$obj.o(Region$$Table)
    i2c_addr                                 0x20000060   Data           1  app_mir3da.o(.data)
    uwTickFreq                               0x20000064   Data           1  stm32l0xx_hal.o(.data)
    uwTickPrio                               0x20000068   Data           4  stm32l0xx_hal.o(.data)
    uwTick                                   0x2000006c   Data           4  stm32l0xx_hal.o(.data)
    SystemCoreClock                          0x20000070   Data           4  system_stm32l0xx.o(.data)
    __microlib_freelist                      0x20000074   Data           4  mvars.o(.data)
    __microlib_freelist_initialised          0x20000078   Data           4  mvars.o(.data)
    usart1_ctl                               0x20000090   Data          20  app_port.o(.bss)
    usart2_ctl                               0x200000a4   Data          20  app_port.o(.bss)
    usart3_ctl                               0x200000b8   Data          20  app_port.o(.bss)
    usart1rxbuf                              0x200000cc   Data         256  app_port.o(.bss)
    usart2rxbuf                              0x200001cc   Data        2560  app_port.o(.bss)
    usart3rxbuf                              0x20000bcc   Data         128  app_port.o(.bss)
    sysinfo                                  0x20000c4c   Data         124  app_sys.o(.bss)
    sysparam                                 0x20000dc8   Data         292  app_param.o(.bss)
    CODEVERSION                              0x20000eec   Data          30  app_param.o(.bss)
    n58_invoke_status                        0x20000f0c   Data          12  app_net.o(.bss)
    n58_lte_status                           0x20000f18   Data         149  app_net.o(.bss)
    netconnect                               0x20000fd0   Data          12  app_serverprotocol.o(.bss)
    rf                                       0x200014f8   Data          68  app_rec.o(.bss)
    lastuploadgpsinfo                        0x20001900   Data          32  app_gpsarithmetic.o(.bss)
    ble_info                                 0x20001920   Data          23  app_ble.o(.bss)
    hadc                                     0x20001938   Data          92  adc.o(.bss)
    hi2c1                                    0x20001994   Data          76  i2c.o(.bss)
    hiwdg                                    0x200019e0   Data          16  iwdg.o(.bss)
    hlpuart1                                 0x200019f0   Data         132  usart.o(.bss)
    huart1                                   0x20001a74   Data         132  usart.o(.bss)
    huart2                                   0x20001af8   Data         132  usart.o(.bss)
    hdma_lpuart1_rx                          0x20001b7c   Data          72  usart.o(.bss)
    hdma_usart1_rx                           0x20001bc4   Data          72  usart.o(.bss)
    hdma_usart2_rx                           0x20001c0c   Data          72  usart.o(.bss)
    hrtc                                     0x20001c54   Data          36  rtc.o(.bss)
    pFlash                                   0x20001c78   Data          24  stm32l0xx_hal_flash.o(.bss)
    __heap_base                              0x20001c90   Data           0  startup_stm32l071xx.o(HEAP)
    __heap_limit                             0x20002c90   Data           0  startup_stm32l071xx.o(HEAP)
    __initial_sp                             0x20003c90   Data           0  startup_stm32l071xx.o(STACK)



==============================================================================

Memory Map of the image

  Image Entry point : 0x080078c1

  Load Region LR_IROM1 (Base: 0x08007800, Size: 0x000122d4, Max: 0x00020000, ABSOLUTE)

    Execution Region ER_IROM1 (Exec base: 0x08007800, Load base: 0x08007800, Size: 0x00012254, Max: 0x00020000, ABSOLUTE)

    Exec Addr    Load Addr    Size         Type   Attr      Idx    E Section Name        Object

    0x08007800   0x08007800   0x000000c0   Data   RO         5915    RESET               startup_stm32l071xx.o
    0x080078c0   0x080078c0   0x00000000   Code   RO         5968  * .ARM.Collect$$$$00000000  mc_p.l(entry.o)
    0x080078c0   0x080078c0   0x00000004   Code   RO         6356    .ARM.Collect$$$$00000001  mc_p.l(entry2.o)
    0x080078c4   0x080078c4   0x00000004   Code   RO         6359    .ARM.Collect$$$$00000004  mc_p.l(entry5.o)
    0x080078c8   0x080078c8   0x00000000   Code   RO         6361    .ARM.Collect$$$$00000008  mc_p.l(entry7b.o)
    0x080078c8   0x080078c8   0x00000000   Code   RO         6363    .ARM.Collect$$$$0000000A  mc_p.l(entry8b.o)
    0x080078c8   0x080078c8   0x00000008   Code   RO         6364    .ARM.Collect$$$$0000000B  mc_p.l(entry9a.o)
    0x080078d0   0x080078d0   0x00000004   Code   RO         6371    .ARM.Collect$$$$0000000E  mc_p.l(entry12b.o)
    0x080078d4   0x080078d4   0x00000000   Code   RO         6366    .ARM.Collect$$$$0000000F  mc_p.l(entry10a.o)
    0x080078d4   0x080078d4   0x00000000   Code   RO         6368    .ARM.Collect$$$$00000011  mc_p.l(entry11a.o)
    0x080078d4   0x080078d4   0x00000004   Code   RO         6357    .ARM.Collect$$$$00002712  mc_p.l(entry2.o)
    0x080078d8   0x080078d8   0x0000001c   Code   RO         5916    .text               startup_stm32l071xx.o
    0x080078f4   0x080078f4   0x0000002c   Code   RO         5971    .text               mc_p.l(uidiv.o)
    0x08007920   0x08007920   0x00000028   Code   RO         5973    .text               mc_p.l(idiv.o)
    0x08007948   0x08007948   0x00000060   Code   RO         5975    .text               mc_p.l(uldiv.o)
    0x080079a8   0x080079a8   0x0000008c   Code   RO         5977    .text               mc_p.l(mktime.o)
    0x08007a34   0x08007a34   0x00000024   Code   RO         5980    .text               mc_p.l(memcpya.o)
    0x08007a58   0x08007a58   0x00000024   Code   RO         5982    .text               mc_p.l(memseta.o)
    0x08007a7c   0x08007a7c   0x00000028   Code   RO         5984    .text               mc_p.l(strstr.o)
    0x08007aa4   0x08007aa4   0x0000001a   Code   RO         5986    .text               mc_p.l(strncpy.o)
    0x08007abe   0x08007abe   0x0000000e   Code   RO         5988    .text               mc_p.l(strlen.o)
    0x08007acc   0x08007acc   0x00000012   Code   RO         5990    .text               mc_p.l(strcpy.o)
    0x08007ade   0x08007ade   0x00000076   Code   RO         6283    .text               mc_p.l(strtoul.o)
    0x08007b54   0x08007b54   0x0000001a   Code   RO         6285    .text               mc_p.l(atoi.o)
    0x08007b6e   0x08007b6e   0x0000001a   Code   RO         6287    .text               mc_p.l(atol.o)
    0x08007b88   0x08007b88   0x000000b2   Code   RO         6289    .text               mf_p.l(fadd.o)
    0x08007c3a   0x08007c3a   0x0000007a   Code   RO         6291    .text               mf_p.l(fmul.o)
    0x08007cb4   0x08007cb4   0x0000007c   Code   RO         6293    .text               mf_p.l(fdiv.o)
    0x08007d30   0x08007d30   0x00000168   Code   RO         6295    .text               mf_p.l(dadd.o)
    0x08007e98   0x08007e98   0x000000d0   Code   RO         6297    .text               mf_p.l(dmul.o)
    0x08007f68   0x08007f68   0x000000f0   Code   RO         6299    .text               mf_p.l(ddiv.o)
    0x08008058   0x08008058   0x0000002c   Code   RO         6301    .text               mf_p.l(dscalb.o)
    0x08008084   0x08008084   0x0000000e   Code   RO         6303    .text               mf_p.l(ffltui.o)
    0x08008092   0x08008092   0x00000002   PAD
    0x08008094   0x08008094   0x00000028   Code   RO         6305    .text               mf_p.l(dflti.o)
    0x080080bc   0x080080bc   0x0000001c   Code   RO         6307    .text               mf_p.l(dfltui.o)
    0x080080d8   0x080080d8   0x00000028   Code   RO         6309    .text               mf_p.l(ffixui.o)
    0x08008100   0x08008100   0x0000003c   Code   RO         6311    .text               mf_p.l(dfixui.o)
    0x0800813c   0x0800813c   0x00000028   Code   RO         6313    .text               mf_p.l(f2d.o)
    0x08008164   0x08008164   0x00000028   Code   RO         6315    .text               mf_p.l(cdcmple.o)
    0x0800818c   0x0800818c   0x00000028   Code   RO         6317    .text               mf_p.l(cdrcmple.o)
    0x080081b4   0x080081b4   0x00000038   Code   RO         6319    .text               mf_p.l(d2f.o)
    0x080081ec   0x080081ec   0x00000014   Code   RO         6321    .text               mf_p.l(cfcmple.o)
    0x08008200   0x08008200   0x00000020   Code   RO         6375    .text               mc_p.l(llshl.o)
    0x08008220   0x08008220   0x00000022   Code   RO         6377    .text               mc_p.l(llushr.o)
    0x08008242   0x08008242   0x00000026   Code   RO         6379    .text               mc_p.l(llsshr.o)
    0x08008268   0x08008268   0x00000008   Code   RO         6381    .text               mc_p.l(ctype_o.o)
    0x08008270   0x08008270   0x00000012   Code   RO         6403    .text               mc_p.l(isspace_o.o)
    0x08008282   0x08008282   0x00000002   PAD
    0x08008284   0x08008284   0x00000074   Code   RO         6412    .text               mc_p.l(localtime_i.o)
    0x080082f8   0x080082f8   0x000000a6   Code   RO         6424    .text               mc_p.l(_strtoul.o)
    0x0800839e   0x0800839e   0x00000002   PAD
    0x080083a0   0x080083a0   0x000000a4   Code   RO         6426    .text               mc_p.l(strtod.o)
    0x08008444   0x08008444   0x00000070   Code   RO         6428    .text               mc_p.l(strtol.o)
    0x080084b4   0x080084b4   0x00000000   Code   RO         6430    .text               mc_p.l(iusefp.o)
    0x080084b4   0x080084b4   0x00000082   Code   RO         6431    .text               mf_p.l(fepilogue.o)
    0x08008536   0x08008536   0x000000be   Code   RO         6433    .text               mf_p.l(depilogue.o)
    0x080085f4   0x080085f4   0x000000a2   Code   RO         6437    .text               mf_p.l(dsqrt.o)
    0x08008696   0x08008696   0x00000002   PAD
    0x08008698   0x08008698   0x00000040   Code   RO         6439    .text               mf_p.l(dfixul.o)
    0x080086d8   0x080086d8   0x00000024   Code   RO         6441    .text               mc_p.l(init.o)
    0x080086fc   0x080086fc   0x0000001e   Code   RO         6446    .text               mc_p.l(_chval.o)
    0x0800871a   0x0800871a   0x00000002   PAD
    0x0800871c   0x0800871c   0x00000374   Code   RO         6448    .text               mc_p.l(scanf_fp.o)
    0x08008a90   0x08008a90   0x00000044   Code   RO         6452    .text               mc_p.l(_sgetc.o)
    0x08008ad4   0x08008ad4   0x00000048   Code   RO         6455    .text               mf_p.l(dfixi.o)
    0x08008b1c   0x08008b1c   0x0000007a   Code   RO         6457    .text               mc_p.l(llmul.o)
    0x08008b96   0x08008b96   0x00000002   PAD
    0x08008b98   0x08008b98   0x0000001c   Code   RO         6462    .text               mf_p.l(dfltul.o)
    0x08008bb4   0x08008bb4   0x00000052   Code   RO         3123    i.ADC_ConversionStop  stm32l0xx_hal_adc.o
    0x08008c06   0x08008c06   0x00000002   PAD
    0x08008c08   0x08008c08   0x00000024   Code   RO         3127    i.ADC_DelayMicroSecond  stm32l0xx_hal_adc.o
    0x08008c2c   0x08008c2c   0x00000060   Code   RO         3128    i.ADC_Disable       stm32l0xx_hal_adc.o
    0x08008c8c   0x08008c8c   0x00000064   Code   RO         3129    i.ADC_Enable        stm32l0xx_hal_adc.o
    0x08008cf0   0x08008cf0   0x000000e4   Code   RO          999    i.CreateNodeCmd     app_net.o
    0x08008dd4   0x08008dd4   0x000000fc   Code   RO            3    i.Create_Timer      app_kernal.o
    0x08008ed0   0x08008ed0   0x00000010   Code   RO         3013    i.DMA1_Channel2_3_IRQHandler  stm32l0xx_it.o
    0x08008ee0   0x08008ee0   0x00000018   Code   RO         3014    i.DMA1_Channel4_5_6_7_IRQHandler  stm32l0xx_it.o
    0x08008ef8   0x08008ef8   0x0000002c   Code   RO         4559    i.DMA_SetConfig     stm32l0xx_hal_dma.o
    0x08008f24   0x08008f24   0x00000018   Code   RO         3015    i.EXTI4_15_IRQHandler  stm32l0xx_it.o
    0x08008f3c   0x08008f3c   0x00000002   Code   RO         2745    i.Error_Handler     main.o
    0x08008f3e   0x08008f3e   0x00000002   PAD
    0x08008f40   0x08008f40   0x00000090   Code   RO         4291    i.FLASH_SetErrorCode  stm32l0xx_hal_flash.o
    0x08008fd0   0x08008fd0   0x00000070   Code   RO         4292    i.FLASH_WaitForLastOperation  stm32l0xx_hal_flash.o
    0x08009040   0x08009040   0x0000002c   Code   RO          429    i.GetCrc16          app_sys.o
    0x0800906c   0x0800906c   0x000000aa   Code   RO         3306    i.HAL_ADCEx_Calibration_Start  stm32l0xx_hal_adc_ex.o
    0x08009116   0x08009116   0x00000002   PAD
    0x08009118   0x08009118   0x00000094   Code   RO         3131    i.HAL_ADC_ConfigChannel  stm32l0xx_hal_adc.o
    0x080091ac   0x080091ac   0x00000004   Code   RO         3137    i.HAL_ADC_GetState  stm32l0xx_hal_adc.o
    0x080091b0   0x080091b0   0x00000006   Code   RO         3138    i.HAL_ADC_GetValue  stm32l0xx_hal_adc.o
    0x080091b6   0x080091b6   0x00000002   PAD
    0x080091b8   0x080091b8   0x000001c8   Code   RO         3140    i.HAL_ADC_Init      stm32l0xx_hal_adc.o
    0x08009380   0x08009380   0x00000050   Code   RO         2804    i.HAL_ADC_MspInit   adc.o
    0x080093d0   0x080093d0   0x000000c0   Code   RO         3144    i.HAL_ADC_PollForConversion  stm32l0xx_hal_adc.o
    0x08009490   0x08009490   0x0000005c   Code   RO         3146    i.HAL_ADC_Start     stm32l0xx_hal_adc.o
    0x080094ec   0x080094ec   0x0000003e   Code   RO         3149    i.HAL_ADC_Stop      stm32l0xx_hal_adc.o
    0x0800952a   0x0800952a   0x00000044   Code   RO         4560    i.HAL_DMA_Abort     stm32l0xx_hal_dma.o
    0x0800956e   0x0800956e   0x0000004c   Code   RO         4561    i.HAL_DMA_Abort_IT  stm32l0xx_hal_dma.o
    0x080095ba   0x080095ba   0x00000002   PAD
    0x080095bc   0x080095bc   0x00000068   Code   RO         4562    i.HAL_DMA_DeInit    stm32l0xx_hal_dma.o
    0x08009624   0x08009624   0x00000004   Code   RO         4563    i.HAL_DMA_GetError  stm32l0xx_hal_dma.o
    0x08009628   0x08009628   0x000000a8   Code   RO         4565    i.HAL_DMA_IRQHandler  stm32l0xx_hal_dma.o
    0x080096d0   0x080096d0   0x00000090   Code   RO         4566    i.HAL_DMA_Init      stm32l0xx_hal_dma.o
    0x08009760   0x08009760   0x00000068   Code   RO         4570    i.HAL_DMA_Start_IT  stm32l0xx_hal_dma.o
    0x080097c8   0x080097c8   0x00000024   Code   RO         3369    i.HAL_Delay         stm32l0xx_hal.o
    0x080097ec   0x080097ec   0x00000014   Code   RO         4395    i.HAL_FLASHEx_DATAEEPROM_Lock  stm32l0xx_hal_flash_ex.o
    0x08009800   0x08009800   0x00000054   Code   RO         4396    i.HAL_FLASHEx_DATAEEPROM_Program  stm32l0xx_hal_flash_ex.o
    0x08009854   0x08009854   0x00000034   Code   RO         4397    i.HAL_FLASHEx_DATAEEPROM_Unlock  stm32l0xx_hal_flash_ex.o
    0x08009888   0x08009888   0x000000f0   Code   RO         4497    i.HAL_GPIO_DeInit   stm32l0xx_hal_gpio.o
    0x08009978   0x08009978   0x00000022   Code   RO          637    i.HAL_GPIO_EXTI_Callback  app_user.o
    0x0800999a   0x0800999a   0x00000002   PAD
    0x0800999c   0x0800999c   0x00000018   Code   RO         4499    i.HAL_GPIO_EXTI_IRQHandler  stm32l0xx_hal_gpio.o
    0x080099b4   0x080099b4   0x00000184   Code   RO         4500    i.HAL_GPIO_Init     stm32l0xx_hal_gpio.o
    0x08009b38   0x08009b38   0x0000000a   Code   RO         4502    i.HAL_GPIO_ReadPin  stm32l0xx_hal_gpio.o
    0x08009b42   0x08009b42   0x0000000c   Code   RO         4504    i.HAL_GPIO_WritePin  stm32l0xx_hal_gpio.o
    0x08009b4e   0x08009b4e   0x00000002   PAD
    0x08009b50   0x08009b50   0x0000000c   Code   RO         3373    i.HAL_GetTick       stm32l0xx_hal.o
    0x08009b5c   0x08009b5c   0x0000004a   Code   RO         4024    i.HAL_I2CEx_ConfigAnalogFilter  stm32l0xx_hal_i2c_ex.o
    0x08009ba6   0x08009ba6   0x00000048   Code   RO         4025    i.HAL_I2CEx_ConfigDigitalFilter  stm32l0xx_hal_i2c_ex.o
    0x08009bee   0x08009bee   0x00000034   Code   RO         3568    i.HAL_I2C_DeInit    stm32l0xx_hal_i2c.o
    0x08009c22   0x08009c22   0x00000002   PAD
    0x08009c24   0x08009c24   0x000000b4   Code   RO         3577    i.HAL_I2C_Init      stm32l0xx_hal_i2c.o
    0x08009cd8   0x08009cd8   0x00000154   Code   RO         3595    i.HAL_I2C_Mem_Read  stm32l0xx_hal_i2c.o
    0x08009e2c   0x08009e2c   0x0000014c   Code   RO         3598    i.HAL_I2C_Mem_Write  stm32l0xx_hal_i2c.o
    0x08009f78   0x08009f78   0x00000038   Code   RO         2861    i.HAL_I2C_MspDeInit  i2c.o
    0x08009fb0   0x08009fb0   0x0000005c   Code   RO         2862    i.HAL_I2C_MspInit   i2c.o
    0x0800a00c   0x0800a00c   0x00000064   Code   RO         5002    i.HAL_IWDG_Init     stm32l0xx_hal_iwdg.o
    0x0800a070   0x0800a070   0x00000010   Code   RO         5003    i.HAL_IWDG_Refresh  stm32l0xx_hal_iwdg.o
    0x0800a080   0x0800a080   0x00000010   Code   RO         3379    i.HAL_IncTick       stm32l0xx_hal.o
    0x0800a090   0x0800a090   0x00000028   Code   RO         3380    i.HAL_Init          stm32l0xx_hal.o
    0x0800a0b8   0x0800a0b8   0x00000044   Code   RO         3381    i.HAL_InitTick      stm32l0xx_hal.o
    0x0800a0fc   0x0800a0fc   0x00000018   Code   RO         3103    i.HAL_MspInit       stm32l0xx_hal_msp.o
    0x0800a114   0x0800a114   0x00000020   Code   RO         4826    i.HAL_NVIC_DisableIRQ  stm32l0xx_hal_cortex.o
    0x0800a134   0x0800a134   0x00000018   Code   RO         4827    i.HAL_NVIC_EnableIRQ  stm32l0xx_hal_cortex.o
    0x0800a14c   0x0800a14c   0x00000008   Code   RO         4831    i.HAL_NVIC_SetPriority  stm32l0xx_hal_cortex.o
    0x0800a154   0x0800a154   0x0000001c   Code   RO         4832    i.HAL_NVIC_SystemReset  stm32l0xx_hal_cortex.o
    0x0800a170   0x0800a170   0x00000010   Code   RO         4769    i.HAL_PWREx_EnableFastWakeUp  stm32l0xx_hal_pwr_ex.o
    0x0800a180   0x0800a180   0x00000010   Code   RO         4771    i.HAL_PWREx_EnableUltraLowPower  stm32l0xx_hal_pwr_ex.o
    0x0800a190   0x0800a190   0x00000010   Code   RO         4657    i.HAL_PWR_EnableBkUpAccess  stm32l0xx_hal_pwr.o
    0x0800a1a0   0x0800a1a0   0x00000064   Code   RO         4664    i.HAL_PWR_EnterSTOPMode  stm32l0xx_hal_pwr.o
    0x0800a204   0x0800a204   0x00000178   Code   RO         4175    i.HAL_RCCEx_PeriphCLKConfig  stm32l0xx_hal_rcc_ex.o
    0x0800a37c   0x0800a37c   0x0000019c   Code   RO         4075    i.HAL_RCC_ClockConfig  stm32l0xx_hal_rcc.o
    0x0800a518   0x0800a518   0x00000020   Code   RO         4081    i.HAL_RCC_GetPCLK1Freq  stm32l0xx_hal_rcc.o
    0x0800a538   0x0800a538   0x00000020   Code   RO         4082    i.HAL_RCC_GetPCLK2Freq  stm32l0xx_hal_rcc.o
    0x0800a558   0x0800a558   0x00000078   Code   RO         4083    i.HAL_RCC_GetSysClockFreq  stm32l0xx_hal_rcc.o
    0x0800a5d0   0x0800a5d0   0x00000432   Code   RO         4086    i.HAL_RCC_OscConfig  stm32l0xx_hal_rcc.o
    0x0800aa02   0x0800aa02   0x00000002   Code   RO         5629    i.HAL_RTCEx_AlarmBEventCallback  stm32l0xx_hal_rtc_ex.o
    0x0800aa04   0x0800aa04   0x000000f8   Code   RO         5656    i.HAL_RTCEx_SetWakeUpTimer_IT  stm32l0xx_hal_rtc_ex.o
    0x0800aafc   0x0800aafc   0x0000000a   Code   RO          219    i.HAL_RTCEx_WakeUpTimerEventCallback  app_port.o
    0x0800ab06   0x0800ab06   0x00000002   PAD
    0x0800ab08   0x0800ab08   0x00000038   Code   RO         5663    i.HAL_RTCEx_WakeUpTimerIRQHandler  stm32l0xx_hal_rtc_ex.o
    0x0800ab40   0x0800ab40   0x00000078   Code   RO          220    i.HAL_RTC_AlarmAEventCallback  app_port.o
    0x0800abb8   0x0800abb8   0x00000060   Code   RO         5497    i.HAL_RTC_AlarmIRQHandler  stm32l0xx_hal_rtc.o
    0x0800ac18   0x0800ac18   0x000000b8   Code   RO         5499    i.HAL_RTC_DeactivateAlarm  stm32l0xx_hal_rtc.o
    0x0800acd0   0x0800acd0   0x0000008c   Code   RO         5500    i.HAL_RTC_GetAlarm  stm32l0xx_hal_rtc.o
    0x0800ad5c   0x0800ad5c   0x00000044   Code   RO         5501    i.HAL_RTC_GetDate   stm32l0xx_hal_rtc.o
    0x0800ada0   0x0800ada0   0x0000005c   Code   RO         5503    i.HAL_RTC_GetTime   stm32l0xx_hal_rtc.o
    0x0800adfc   0x0800adfc   0x000000bc   Code   RO         5504    i.HAL_RTC_Init      stm32l0xx_hal_rtc.o
    0x0800aeb8   0x0800aeb8   0x00000030   Code   RO         2976    i.HAL_RTC_MspInit   rtc.o
    0x0800aee8   0x0800aee8   0x00000190   Code   RO         5509    i.HAL_RTC_SetAlarm_IT  stm32l0xx_hal_rtc.o
    0x0800b078   0x0800b078   0x000000c4   Code   RO         5510    i.HAL_RTC_SetDate   stm32l0xx_hal_rtc.o
    0x0800b13c   0x0800b13c   0x000000e8   Code   RO         5511    i.HAL_RTC_SetTime   stm32l0xx_hal_rtc.o
    0x0800b224   0x0800b224   0x00000034   Code   RO         5512    i.HAL_RTC_WaitForSynchro  stm32l0xx_hal_rtc.o
    0x0800b258   0x0800b258   0x00000010   Code   RO         3384    i.HAL_ResumeTick    stm32l0xx_hal.o
    0x0800b268   0x0800b268   0x00000030   Code   RO         4835    i.HAL_SYSTICK_Config  stm32l0xx_hal_cortex.o
    0x0800b298   0x0800b298   0x00000010   Code   RO         3390    i.HAL_SuspendTick   stm32l0xx_hal.o
    0x0800b2a8   0x0800b2a8   0x00000002   Code   RO         5037    i.HAL_UARTEx_RxEventCallback  stm32l0xx_hal_uart.o
    0x0800b2aa   0x0800b2aa   0x00000002   Code   RO         5426    i.HAL_UARTEx_WakeupCallback  stm32l0xx_hal_uart_ex.o
    0x0800b2ac   0x0800b2ac   0x0000007e   Code   RO         5049    i.HAL_UART_DMAStop  stm32l0xx_hal_uart.o
    0x0800b32a   0x0800b32a   0x0000003e   Code   RO         5050    i.HAL_UART_DeInit   stm32l0xx_hal_uart.o
    0x0800b368   0x0800b368   0x000000c8   Code   RO          221    i.HAL_UART_ErrorCallback  app_port.o
    0x0800b430   0x0800b430   0x00000220   Code   RO         5056    i.HAL_UART_IRQHandler  stm32l0xx_hal_uart.o
    0x0800b650   0x0800b650   0x0000006a   Code   RO         5057    i.HAL_UART_Init     stm32l0xx_hal_uart.o
    0x0800b6ba   0x0800b6ba   0x00000002   PAD
    0x0800b6bc   0x0800b6bc   0x00000090   Code   RO         2925    i.HAL_UART_MspDeInit  usart.o
    0x0800b74c   0x0800b74c   0x00000180   Code   RO         2926    i.HAL_UART_MspInit  usart.o
    0x0800b8cc   0x0800b8cc   0x00000060   Code   RO         5061    i.HAL_UART_Receive_DMA  stm32l0xx_hal_uart.o
    0x0800b92c   0x0800b92c   0x00000080   Code   RO          222    i.HAL_UART_RxCpltCallback  app_port.o
    0x0800b9ac   0x0800b9ac   0x00000002   Code   RO         5065    i.HAL_UART_RxHalfCpltCallback  stm32l0xx_hal_uart.o
    0x0800b9ae   0x0800b9ae   0x000000d2   Code   RO         5066    i.HAL_UART_Transmit  stm32l0xx_hal_uart.o
    0x0800ba80   0x0800ba80   0x00000002   Code   RO         5069    i.HAL_UART_TxCpltCallback  stm32l0xx_hal_uart.o
    0x0800ba82   0x0800ba82   0x00000002   PAD
    0x0800ba84   0x0800ba84   0x00000014   Code   RO         3016    i.HardFault_Handler  stm32l0xx_it.o
    0x0800ba98   0x0800ba98   0x00000022   Code   RO         3624    i.I2C_Flush_TXDR    stm32l0xx_hal_i2c.o
    0x0800baba   0x0800baba   0x00000002   PAD
    0x0800babc   0x0800babc   0x00000070   Code   RO         3632    i.I2C_IsAcknowledgeFailed  stm32l0xx_hal_i2c.o
    0x0800bb2c   0x0800bb2c   0x00000060   Code   RO         3635    i.I2C_RequestMemoryRead  stm32l0xx_hal_i2c.o
    0x0800bb8c   0x0800bb8c   0x00000060   Code   RO         3636    i.I2C_RequestMemoryWrite  stm32l0xx_hal_i2c.o
    0x0800bbec   0x0800bbec   0x00000028   Code   RO         3639    i.I2C_TransferConfig  stm32l0xx_hal_i2c.o
    0x0800bc14   0x0800bc14   0x0000004e   Code   RO         3641    i.I2C_WaitOnFlagUntilTimeout  stm32l0xx_hal_i2c.o
    0x0800bc62   0x0800bc62   0x0000004c   Code   RO         3643    i.I2C_WaitOnSTOPFlagUntilTimeout  stm32l0xx_hal_i2c.o
    0x0800bcae   0x0800bcae   0x00000050   Code   RO         3644    i.I2C_WaitOnTXISFlagUntilTimeout  stm32l0xx_hal_i2c.o
    0x0800bcfe   0x0800bcfe   0x00000002   PAD
    0x0800bd00   0x0800bd00   0x00000014   Code   RO         3017    i.LPUART1_IRQHandler  stm32l0xx_it.o
    0x0800bd14   0x0800bd14   0x00000028   Code   RO          430    i.LogMessage        app_sys.o
    0x0800bd3c   0x0800bd3c   0x0000001c   Code   RO          431    i.LogMessageWL      app_sys.o
    0x0800bd58   0x0800bd58   0x00000070   Code   RO          432    i.LogPrintf         app_sys.o
    0x0800bdc8   0x0800bdc8   0x00000070   Code   RO         2805    i.MX_ADC_Init       adc.o
    0x0800be38   0x0800be38   0x00000038   Code   RO         2841    i.MX_DMA_Init       dma.o
    0x0800be70   0x0800be70   0x0000010c   Code   RO         2783    i.MX_GPIO_Init      gpio.o
    0x0800bf7c   0x0800bf7c   0x00000058   Code   RO         2863    i.MX_I2C1_Init      i2c.o
    0x0800bfd4   0x0800bfd4   0x0000002c   Code   RO         2899    i.MX_IWDG_Init      iwdg.o
    0x0800c000   0x0800c000   0x00000038   Code   RO         2927    i.MX_LPUART1_UART_Init  usart.o
    0x0800c038   0x0800c038   0x00000044   Code   RO         2977    i.MX_RTC_Init       rtc.o
    0x0800c07c   0x0800c07c   0x00000038   Code   RO         2928    i.MX_USART1_UART_Init  usart.o
    0x0800c0b4   0x0800c0b4   0x00000038   Code   RO         2929    i.MX_USART2_UART_Init  usart.o
    0x0800c0ec   0x0800c0ec   0x0000001c   Code   RO         1000    i.N58_ChangeInvokeStatus  app_net.o
    0x0800c108   0x0800c108   0x00000002   Code   RO         3018    i.NMI_Handler       stm32l0xx_it.o
    0x0800c10a   0x0800c10a   0x00000002   Code   RO         3019    i.PendSV_Handler    stm32l0xx_it.o
    0x0800c10c   0x0800c10c   0x00000010   Code   RO         5513    i.RTC_Bcd2ToByte    stm32l0xx_hal_rtc.o
    0x0800c11c   0x0800c11c   0x00000018   Code   RO         5514    i.RTC_ByteToBcd2    stm32l0xx_hal_rtc.o
    0x0800c134   0x0800c134   0x00000038   Code   RO         5515    i.RTC_EnterInitMode  stm32l0xx_hal_rtc.o
    0x0800c16c   0x0800c16c   0x00000014   Code   RO         3020    i.RTC_IRQHandler    stm32l0xx_it.o
    0x0800c180   0x0800c180   0x00000002   Code   RO         3021    i.SVC_Handler       stm32l0xx_it.o
    0x0800c182   0x0800c182   0x00000008   Code   RO         3022    i.SysTick_Handler   stm32l0xx_it.o
    0x0800c18a   0x0800c18a   0x00000002   PAD
    0x0800c18c   0x0800c18c   0x00000090   Code   RO         2746    i.SystemClock_Config  main.o
    0x0800c21c   0x0800c21c   0x00000058   Code   RO         5882    i.SystemInit        system_stm32l0xx.o
    0x0800c274   0x0800c274   0x000000ca   Code   RO         5071    i.UART_AdvFeatureConfig  stm32l0xx_hal_uart.o
    0x0800c33e   0x0800c33e   0x00000002   PAD
    0x0800c340   0x0800c340   0x00000064   Code   RO         5072    i.UART_CheckIdleState  stm32l0xx_hal_uart.o
    0x0800c3a4   0x0800c3a4   0x00000014   Code   RO         5073    i.UART_DMAAbortOnError  stm32l0xx_hal_uart.o
    0x0800c3b8   0x0800c3b8   0x0000004c   Code   RO         5074    i.UART_DMAError     stm32l0xx_hal_uart.o
    0x0800c404   0x0800c404   0x0000005e   Code   RO         5075    i.UART_DMAReceiveCplt  stm32l0xx_hal_uart.o
    0x0800c462   0x0800c462   0x0000001c   Code   RO         5077    i.UART_DMARxHalfCplt  stm32l0xx_hal_uart.o
    0x0800c47e   0x0800c47e   0x00000032   Code   RO         5083    i.UART_EndRxTransfer  stm32l0xx_hal_uart.o
    0x0800c4b0   0x0800c4b0   0x00000010   Code   RO         5084    i.UART_EndTxTransfer  stm32l0xx_hal_uart.o
    0x0800c4c0   0x0800c4c0   0x00000214   Code   RO         5087    i.UART_SetConfig    stm32l0xx_hal_uart.o
    0x0800c6d4   0x0800c6d4   0x0000008c   Code   RO         5088    i.UART_Start_Receive_DMA  stm32l0xx_hal_uart.o
    0x0800c760   0x0800c760   0x0000009e   Code   RO         5092    i.UART_WaitOnFlagUntilTimeout  stm32l0xx_hal_uart.o
    0x0800c7fe   0x0800c7fe   0x00000002   PAD
    0x0800c800   0x0800c800   0x00000014   Code   RO         3023    i.USART1_IRQHandler  stm32l0xx_it.o
    0x0800c814   0x0800c814   0x00000014   Code   RO         3024    i.USART2_IRQHandler  stm32l0xx_it.o
    0x0800c828   0x0800c828   0x00000014   Code   RO          223    i.UsartInterruptHandler  app_port.o
    0x0800c83c   0x0800c83c   0x00000018   Code   RO          224    i.UsartReceiveDataPost  app_port.o
    0x0800c854   0x0800c854   0x00000026   Code   RO         2492    i.XINGSHENG_ID_ASCII_Decoding  app_sn.o
    0x0800c87a   0x0800c87a   0x00000084   Code   RO         2493    i.XINGSHENG_ID_Decoder  app_sn.o
    0x0800c8fe   0x0800c8fe   0x00000002   PAD
    0x0800c900   0x0800c900   0x00000028   Code   RO         6229    i.__0sprintf        mc_p.l(printfa.o)
    0x0800c928   0x0800c928   0x00000024   Code   RO         6233    i.__0vsprintf       mc_p.l(printfa.o)
    0x0800c94c   0x0800c94c   0x0000002e   Code   RO         6435    i.__ARM_clz         mf_p.l(depilogue.o)
    0x0800c97a   0x0800c97a   0x00000030   Code   RO         4160    i.__ARM_common_ll_muluu  stm32l0xx_hal_rcc.o
    0x0800c9aa   0x0800c9aa   0x0000001a   Code   RO         1376    i.__ARM_common_switch8  app_net.o
    0x0800c9c4   0x0800c9c4   0x0000002c   Code   RO         6340    i.__ARM_fpclassify  m_ps.l(fpclassify.o)
    0x0800c9f0   0x0800c9f0   0x00000044   Code   RO         4837    i.__NVIC_SetPriority  stm32l0xx_hal_cortex.o
    0x0800ca34   0x0800ca34   0x00000008   Code   RO         6417    i.__aeabi_errno_addr  mc_p.l(errno.o)
    0x0800ca3c   0x0800ca3c   0x0000039c   Code   RO         6345    i.__ieee754_rem_pio2  m_ps.l(rred.o)
    0x0800cdd8   0x0800cdd8   0x000000f4   Code   RO         6323    i.__kernel_cos      m_ps.l(cos_i.o)
    0x0800cecc   0x0800cecc   0x000000ac   Code   RO         6342    i.__kernel_poly     m_ps.l(poly.o)
    0x0800cf78   0x0800cf78   0x000000ec   Code   RO         6350    i.__kernel_sin      m_ps.l(sin_i.o)
    0x0800d064   0x0800d064   0x00000014   Code   RO         6326    i.__mathlib_dbl_divzero  m_ps.l(dunder.o)
    0x0800d078   0x0800d078   0x0000000a   Code   RO         6327    i.__mathlib_dbl_infnan  m_ps.l(dunder.o)
    0x0800d082   0x0800d082   0x00000008   Code   RO         6328    i.__mathlib_dbl_infnan2  m_ps.l(dunder.o)
    0x0800d08a   0x0800d08a   0x00000010   Code   RO         6329    i.__mathlib_dbl_invalid  m_ps.l(dunder.o)
    0x0800d09a   0x0800d09a   0x00000002   PAD
    0x0800d09c   0x0800d09c   0x00000014   Code   RO         6330    i.__mathlib_dbl_overflow  m_ps.l(dunder.o)
    0x0800d0b0   0x0800d0b0   0x00000014   Code   RO         6332    i.__mathlib_dbl_underflow  m_ps.l(dunder.o)
    0x0800d0c4   0x0800d0c4   0x0000000c   Code   RO         6418    i.__read_errno      mc_p.l(errno.o)
    0x0800d0d0   0x0800d0d0   0x0000000e   Code   RO         6466    i.__scatterload_copy  mc_p.l(handlers.o)
    0x0800d0de   0x0800d0de   0x00000002   Code   RO         6467    i.__scatterload_null  mc_p.l(handlers.o)
    0x0800d0e0   0x0800d0e0   0x0000000e   Code   RO         6468    i.__scatterload_zeroinit  mc_p.l(handlers.o)
    0x0800d0ee   0x0800d0ee   0x00000002   PAD
    0x0800d0f0   0x0800d0f0   0x0000000c   Code   RO         6419    i.__set_errno       mc_p.l(errno.o)
    0x0800d0fc   0x0800d0fc   0x00000174   Code   RO         6234    i._fp_digits        mc_p.l(printfa.o)
    0x0800d270   0x0800d270   0x0000000e   Code   RO         6450    i._is_digit         mc_p.l(scanf_fp.o)
    0x0800d27e   0x0800d27e   0x00000002   PAD
    0x0800d280   0x0800d280   0x000006f0   Code   RO         6235    i._printf_core      mc_p.l(printfa.o)
    0x0800d970   0x0800d970   0x00000020   Code   RO         6236    i._printf_post_padding  mc_p.l(printfa.o)
    0x0800d990   0x0800d990   0x0000002c   Code   RO         6237    i._printf_pre_padding  mc_p.l(printfa.o)
    0x0800d9bc   0x0800d9bc   0x0000000a   Code   RO         6239    i._sputc            mc_p.l(printfa.o)
    0x0800d9c6   0x0800d9c6   0x00000002   PAD
    0x0800d9c8   0x0800d9c8   0x000000a0   Code   RO         1834    i.addNewGPSInfo     app_gps.o
    0x0800da68   0x0800da68   0x00000010   Code   RO         1396    i.alarmRequestClear  app_task.o
    0x0800da78   0x0800da78   0x00000010   Code   RO         1397    i.alarmRequestSet   app_task.o
    0x0800da88   0x0800da88   0x00000244   Code   RO         1398    i.alarmUploadRequest  app_task.o
    0x0800dccc   0x0800dccc   0x00000098   Code   RO         2683    i.appBleCRecv       app_ble.o
    0x0800dd64   0x0800dd64   0x00000010   Code   RO         2685    i.appBleInfoReset   app_ble.o
    0x0800dd74   0x0800dd74   0x00000090   Code   RO         2687    i.appBlePRecv       app_ble.o
    0x0800de04   0x0800de04   0x00000040   Code   RO         2688    i.appBleSendData    app_ble.o
    0x0800de44   0x0800de44   0x00000140   Code   RO          225    i.appUartConfig     app_port.o
    0x0800df84   0x0800df84   0x00000014   Code   RO          226    i.appUartSend       app_port.o
    0x0800df98   0x0800df98   0x0000002a   Code   RO          433    i.asciiToHex        app_sys.o
    0x0800dfc2   0x0800dfc2   0x00000002   PAD
    0x0800dfc4   0x0800dfc4   0x00000274   Code   RO         5921    i.asin              m_ps.l(asin.o)
    0x0800e238   0x0800e238   0x0000002c   Code   RO         2046    i.atCmdCmGetParser  app_atcmd.o
    0x0800e264   0x0800e264   0x0000003c   Code   RO         2047    i.atCmdDebugLevelParser  app_atcmd.o
    0x0800e2a0   0x0800e2a0   0x00000288   Code   RO         2048    i.atCmdDebugParase  app_atcmd.o
    0x0800e528   0x0800e528   0x0000008c   Code   RO         2050    i.atCmdFMPCnmeaParase  app_atcmd.o
    0x0800e5b4   0x0800e5b4   0x000000b8   Code   RO         2051    i.atCmdFmpcAdccalParase  app_atcmd.o
    0x0800e66c   0x0800e66c   0x00000020   Code   RO         2052    i.atCmdFmpcAllParse  app_atcmd.o
    0x0800e68c   0x0800e68c   0x00000034   Code   RO         2053    i.atCmdFmpcCMParse  app_atcmd.o
    0x0800e6c0   0x0800e6c0   0x00000038   Code   RO         2054    i.atCmdFmpcChkpParse  app_atcmd.o
    0x0800e6f8   0x0800e6f8   0x00000034   Code   RO         2055    i.atCmdFmpcIMSIParse  app_atcmd.o
    0x0800e72c   0x0800e72c   0x00000044   Code   RO         2056    i.atCmdFmpcIMSIParseRespon  app_atcmd.o
    0x0800e770   0x0800e770   0x00000034   Code   RO         2057    i.atCmdIMEIParse    app_atcmd.o
    0x0800e7a4   0x0800e7a4   0x00000034   Code   RO         2058    i.atCmdIMEIParseRespon  app_atcmd.o
    0x0800e7d8   0x0800e7d8   0x00000308   Code   RO         2059    i.atCmdParaseFunction  app_atcmd.o
    0x0800eae0   0x0800eae0   0x0000005c   Code   RO         2060    i.atCmdZTSNParse    app_atcmd.o
    0x0800eb3c   0x0800eb3c   0x0000002a   Code   RO         5931    i.atof              m_ps.l(atof.o)
    0x0800eb66   0x0800eb66   0x00000002   PAD
    0x0800eb68   0x0800eb68   0x00000100   Code   RO         1399    i.autoSleepTask     app_task.o
    0x0800ec68   0x0800ec68   0x000000a8   Code   RO         2565    i.calculateDistanceOfPoint  app_gpsarithmetic.o
    0x0800ed10   0x0800ed10   0x0000010c   Code   RO         2566    i.calculateTheDistanceBetweenTwoPonits  app_gpsarithmetic.o
    0x0800ee1c   0x0800ee1c   0x00000130   Code   RO         2567    i.calculateTheGPSCornerPoint  app_gpsarithmetic.o
    0x0800ef4c   0x0800ef4c   0x0000003c   Code   RO          434    i.changeByteArrayToHexString  app_sys.o
    0x0800ef88   0x0800ef88   0x00000048   Code   RO          435    i.changeHexStringToByteArray  app_sys.o
    0x0800efd0   0x0800efd0   0x0000004c   Code   RO          436    i.changeHexStringToByteArray_10in  app_sys.o
    0x0800f01c   0x0800f01c   0x00000150   Code   RO          437    i.changeUTCTimeToLocalTime  app_sys.o
    0x0800f16c   0x0800f16c   0x00000094   Code   RO         1965    i.charstrToHexValue  app_nmea.o
    0x0800f200   0x0800f200   0x00000020   Code   RO         1649    i.clearHbtTimer     app_serverprotocol.o
    0x0800f220   0x0800f220   0x00000010   Code   RO         2061    i.clearInstrucionRequest  app_atcmd.o
    0x0800f230   0x0800f230   0x00000010   Code   RO         1005    i.closeModuleGPS    app_net.o
    0x0800f240   0x0800f240   0x0000002a   Code   RO         2494    i.compress          app_sn.o
    0x0800f26a   0x0800f26a   0x00000002   PAD
    0x0800f26c   0x0800f26c   0x00000098   Code   RO         5935    i.cos               m_ps.l(cos.o)
    0x0800f304   0x0800f304   0x000000b4   Code   RO         1650    i.createProtocol16  app_serverprotocol.o
    0x0800f3b8   0x0800f3b8   0x000000bc   Code   RO         1651    i.createProtocol19  app_serverprotocol.o
    0x0800f474   0x0800f474   0x00000094   Code   RO         1653    i.createProtocol62  app_serverprotocol.o
    0x0800f508   0x0800f508   0x00000050   Code   RO         1654    i.createProtocolF1  app_serverprotocol.o
    0x0800f558   0x0800f558   0x000000f8   Code   RO         1655    i.createProtocolF3  app_serverprotocol.o
    0x0800f650   0x0800f650   0x00000014   Code   RO         1656    i.createProtocolHead  app_serverprotocol.o
    0x0800f664   0x0800f664   0x00000010   Code   RO         1657    i.createProtocolSerial  app_serverprotocol.o
    0x0800f674   0x0800f674   0x00000036   Code   RO         1658    i.createProtocolTail  app_serverprotocol.o
    0x0800f6aa   0x0800f6aa   0x00000040   Code   RO         1659    i.createProtocolTail_7979  app_serverprotocol.o
    0x0800f6ea   0x0800f6ea   0x00000038   Code   RO         1660    i.createProtocol_01  app_serverprotocol.o
    0x0800f722   0x0800f722   0x00000002   PAD
    0x0800f724   0x0800f724   0x0000007c   Code   RO         1661    i.createProtocol_12  app_serverprotocol.o
    0x0800f7a0   0x0800f7a0   0x000000bc   Code   RO         1662    i.createProtocol_13  app_serverprotocol.o
    0x0800f85c   0x0800f85c   0x0000004c   Code   RO         1663    i.createProtocol_21  app_serverprotocol.o
    0x0800f8a8   0x0800f8a8   0x00000022   Code   RO         1664    i.createProtocol_8A  app_serverprotocol.o
    0x0800f8ca   0x0800f8ca   0x00000010   Code   RO            4    i.createSystemTask  app_kernal.o
    0x0800f8da   0x0800f8da   0x0000000c   Code   RO         1006    i.csqRequest        app_net.o
    0x0800f8e6   0x0800f8e6   0x00000002   PAD
    0x0800f8e8   0x0800f8e8   0x000000a4   Code   RO         2495    i.decryptSN         app_sn.o
    0x0800f98c   0x0800f98c   0x00000010   Code   RO         1007    i.deleteMessage     app_net.o
    0x0800f99c   0x0800f99c   0x00000074   Code   RO          227    i.disPlaySystemTime  app_port.o
    0x0800fa10   0x0800fa10   0x00000014   Code   RO          438    i.distinguishOK     app_sys.o
    0x0800fa24   0x0800fa24   0x000000c0   Code   RO         2170    i.do123Instruction  app_instructioncmd.o
    0x0800fae4   0x0800fae4   0x00000120   Code   RO         2171    i.doACCCTLGNSSInstrucion  app_instructioncmd.o
    0x0800fc04   0x0800fc04   0x00000138   Code   RO         2172    i.doAPNInstruction  app_instructioncmd.o
    0x0800fd3c   0x0800fd3c   0x00000110   Code   RO         2173    i.doAdccalInstrucion  app_instructioncmd.o
    0x0800fe4c   0x0800fe4c   0x00000170   Code   RO         2174    i.doAlarmModeInstrucion  app_instructioncmd.o
    0x0800ffbc   0x0800ffbc   0x000000c8   Code   RO         2175    i.doAnswerInstrucion  app_instructioncmd.o
    0x08010084   0x08010084   0x00000034   Code   RO         2176    i.doBFInstruction   app_instructioncmd.o
    0x080100b8   0x080100b8   0x00000034   Code   RO         2177    i.doCFInstruction   app_instructioncmd.o
    0x080100ec   0x080100ec   0x0000033c   Code   RO         2178    i.doDebugInstrucion  app_instructioncmd.o
    0x08010428   0x08010428   0x00000094   Code   RO         2179    i.doFactoryInstrucion  app_instructioncmd.o
    0x080104bc   0x080104bc   0x000001d8   Code   RO         2180    i.doFactoryTestInstruction  app_instructioncmd.o
    0x08010694   0x08010694   0x0000009c   Code   RO         2181    i.doFenceInstrucion  app_instructioncmd.o
    0x08010730   0x08010730   0x000000c8   Code   RO         2182    i.doHbtInstruction  app_instructioncmd.o
    0x080107f8   0x080107f8   0x00000118   Code   RO         2183    i.doJTCYCLEInstrucion  app_instructioncmd.o
    0x08010910   0x08010910   0x00000124   Code   RO         2184    i.doJtInstruction   app_instructioncmd.o
    0x08010a34   0x08010a34   0x00000090   Code   RO         2185    i.doLEDInstruction  app_instructioncmd.o
    0x08010ac4   0x08010ac4   0x000000c8   Code   RO         2186    i.doLOWWInstruction  app_instructioncmd.o
    0x08010b8c   0x08010b8c   0x0000042c   Code   RO         2187    i.doModeInstruction  app_instructioncmd.o
    0x08010fb8   0x08010fb8   0x00000130   Code   RO         2188    i.doPOITYPEInstruction  app_instructioncmd.o
    0x080110e8   0x080110e8   0x00000274   Code   RO         2189    i.doParamInstruction  app_instructioncmd.o
    0x0801135c   0x0801135c   0x000000ac   Code   RO         2190    i.doPdopInstrucion  app_instructioncmd.o
    0x08011408   0x08011408   0x00000070   Code   RO         1400    i.doPoitypeRequest  app_task.o
    0x08011478   0x08011478   0x00000068   Code   RO         2191    i.doResetInstruction  app_instructioncmd.o
    0x080114e0   0x080114e0   0x000000b0   Code   RO         2192    i.doSNInstruction   app_instructioncmd.o
    0x08011590   0x08011590   0x00000078   Code   RO         2193    i.doServerInstruction  app_instructioncmd.o
    0x08011608   0x08011608   0x00000174   Code   RO         2194    i.doSetblemacInstrucion  app_instructioncmd.o
    0x0801177c   0x0801177c   0x000000a8   Code   RO         2195    i.doSmsreplyInstrucion  app_instructioncmd.o
    0x08011824   0x08011824   0x00000160   Code   RO         2196    i.doStatusInstruction  app_instructioncmd.o
    0x08011984   0x08011984   0x000000e4   Code   RO         2197    i.doTTSInstruction  app_instructioncmd.o
    0x08011a68   0x08011a68   0x000000c4   Code   RO         2198    i.doTurnAlgInstrucion  app_instructioncmd.o
    0x08011b2c   0x08011b2c   0x000000b4   Code   RO         2199    i.doUPSInstruction  app_instructioncmd.o
    0x08011be0   0x08011be0   0x000000e4   Code   RO         2200    i.doUTCInstruction  app_instructioncmd.o
    0x08011cc4   0x08011cc4   0x00000068   Code   RO         2201    i.doVersionInstruction  app_instructioncmd.o
    0x08011d2c   0x08011d2c   0x00000208   Code   RO         2062    i.doinstruction     app_atcmd.o
    0x08011f34   0x08011f34   0x000000b4   Code   RO         2202    i.dorequestSend123  app_instructioncmd.o
    0x08011fe8   0x08011fe8   0x00000034   Code   RO          681    i.eepromWriteByte   app_param.o
    0x0801201c   0x0801201c   0x00000034   Code   RO          682    i.eepromWriteTwoBytes  app_param.o
    0x08012050   0x08012050   0x00000034   Code   RO          683    i.eepromWriteWord   app_param.o
    0x08012084   0x08012084   0x00000140   Code   RO         2496    i.encrypt           app_sn.o
    0x080121c4   0x080121c4   0x00000050   Code   RO         1401    i.exitNetCtl        app_task.o
    0x08012214   0x08012214   0x0000002a   Code   RO         2497    i.expand            app_sn.o
    0x0801223e   0x0801223e   0x00000002   PAD
    0x08012240   0x08012240   0x00000010   Code   RO          228    i.feedWdt           app_port.o
    0x08012250   0x08012250   0x00000054   Code   RO         6255    i.free              mc_p.l(malloc.o)
    0x080122a4   0x080122a4   0x00000050   Code   RO         1402    i.getBatVoltage     app_task.o
    0x080122f4   0x080122f4   0x0000005c   Code   RO         1665    i.getBatteryLevel   app_serverprotocol.o
    0x08012350   0x08012350   0x0000001a   Code   RO          439    i.getCharIndex      app_sys.o
    0x0801236a   0x0801236a   0x00000028   Code   RO          440    i.getCharIndexWithNum  app_sys.o
    0x08012392   0x08012392   0x00000046   Code   RO          229    i.getCurrentDateTimeOfSec  app_port.o
    0x080123d8   0x080123d8   0x00000008   Code   RO         1837    i.getCurrentGPSInfo  app_gps.o
    0x080123e0   0x080123e0   0x00000008   Code   RO         1838    i.getGSPfifo        app_gps.o
    0x080123e8   0x080123e8   0x00000008   Code   RO         1839    i.getLastFixedGPSInfo  app_gps.o
    0x080123f0   0x080123f0   0x00000008   Code   RO         1008    i.getModuleICCID    app_net.o
    0x080123f8   0x080123f8   0x00000008   Code   RO         1009    i.getModuleIMEI     app_net.o
    0x08012400   0x08012400   0x00000008   Code   RO         1010    i.getModuleIMSI     app_net.o
    0x08012408   0x08012408   0x0000000c   Code   RO         1011    i.getModuleRssi     app_net.o
    0x08012414   0x08012414   0x00000058   Code   RO          230    i.getRtcDateTime    app_port.o
    0x0801246c   0x0801246c   0x00000010   Code   RO          441    i.getTerminalAccState  app_sys.o
    0x0801247c   0x0801247c   0x00000010   Code   RO          442    i.getTerminalChargeState  app_sys.o
    0x0801248c   0x0801248c   0x00000038   Code   RO          231    i.getVoltageAdcValue  app_port.o
    0x080124c4   0x080124c4   0x0000000c   Code   RO         1403    i.gpsChangeFsmState  app_task.o
    0x080124d0   0x080124d0   0x00000028   Code   RO         1840    i.gpsClearCurrentGPSInfo  app_gps.o
    0x080124f8   0x080124f8   0x00000048   Code   RO         1841    i.gpsFilter         app_gps.o
    0x08012540   0x08012540   0x00000014   Code   RO         1913    i.gpsIsRun          app_gpsrestore.o
    0x08012554   0x08012554   0x0000005c   Code   RO         1404    i.gpsLedTask        app_task.o
    0x080125b0   0x080125b0   0x0000000c   Code   RO         1914    i.gpsNoRestoreFileToRead  app_gpsrestore.o
    0x080125bc   0x080125bc   0x0000005c   Code   RO         1405    i.gpsOutputCheckTask  app_task.o
    0x08012618   0x08012618   0x00000044   Code   RO         1406    i.gpsRequestClear   app_task.o
    0x0801265c   0x0801265c   0x00000054   Code   RO         1407    i.gpsRequestClose   app_task.o
    0x080126b0   0x080126b0   0x00000010   Code   RO         1408    i.gpsRequestGet     app_task.o
    0x080126c0   0x080126c0   0x000000a0   Code   RO         1409    i.gpsRequestOpen    app_task.o
    0x08012760   0x08012760   0x00000040   Code   RO         1410    i.gpsRequestSet     app_task.o
    0x080127a0   0x080127a0   0x000000a8   Code   RO         1411    i.gpsRequestTask    app_task.o
    0x08012848   0x08012848   0x000000f8   Code   RO         1666    i.gpsRestoreDataSend  app_serverprotocol.o
    0x08012940   0x08012940   0x0000006c   Code   RO         1917    i.gpsRestoreWriteData  app_gpsrestore.o
    0x080129ac   0x080129ac   0x00000010   Code   RO         1412    i.gpsStartBD        app_task.o
    0x080129bc   0x080129bc   0x00000028   Code   RO         1918    i.gpsUpdateRestoreFileNameAndTotalSize  app_gpsrestore.o
    0x080129e4   0x080129e4   0x00000090   Code   RO         2568    i.gpsUploadPointToServer  app_gpsarithmetic.o
    0x08012a74   0x08012a74   0x00000078   Code   RO         1413    i.gpsUplodOnePointTask  app_task.o
    0x08012aec   0x08012aec   0x0000008c   Code   RO          232    i.gsensorConfig     app_port.o
    0x08012b78   0x08012b78   0x00000010   Code   RO          233    i.gsensorInterrupt  app_port.o
    0x08012b88   0x08012b88   0x000000c4   Code   RO         1414    i.gsensorIntervalCheck  app_task.o
    0x08012c4c   0x08012c4c   0x00000178   Code   RO         1415    i.gsensorTapTask    app_task.o
    0x08012dc4   0x08012dc4   0x00000088   Code   RO         1416    i.hearbeatRequest   app_task.o
    0x08012e4c   0x08012e4c   0x00000050   Code   RO         2569    i.initLastPoint     app_gpsarithmetic.o
    0x08012e9c   0x08012e9c   0x00000050   Code   RO         2063    i.instructionParase  app_atcmd.o
    0x08012eec   0x08012eec   0x0000000c   Code   RO         1012    i.isModulePowerOn   app_net.o
    0x08012ef8   0x08012ef8   0x00000014   Code   RO         1013    i.isModuleRunNormal  app_net.o
    0x08012f0c   0x08012f0c   0x00000020   Code   RO         1667    i.isProtocolReday   app_serverprotocol.o
    0x08012f2c   0x08012f2c   0x000000b0   Code   RO            6    i.kernalRun         app_kernal.o
    0x08012fdc   0x08012fdc   0x000000a8   Code   RO         1966    i.latitude_to_double  app_nmea.o
    0x08013084   0x08013084   0x00000058   Code   RO         1417    i.lbsUploadRequestTask  app_task.o
    0x080130dc   0x080130dc   0x00000088   Code   RO          234    i.ldrInterrupt      app_port.o
    0x08013164   0x08013164   0x0000000c   Code   RO         1418    i.ledRunTask        app_task.o
    0x08013170   0x08013170   0x00000018   Code   RO         1419    i.ledSetPeriod      app_task.o
    0x08013188   0x08013188   0x000000a8   Code   RO         1967    i.longitude_to_double  app_nmea.o
    0x08013230   0x08013230   0x0000001c   Code   RO          235    i.lowPowerConfig    app_port.o
    0x0801324c   0x0801324c   0x0000002a   Code   RO         2747    i.main              main.o
    0x08013276   0x08013276   0x00000002   PAD
    0x08013278   0x08013278   0x0000006c   Code   RO         6256    i.malloc            mc_p.l(malloc.o)
    0x080132e4   0x080132e4   0x00000114   Code   RO         2614    i.mir3da_init       app_mir3da.o
    0x080133f8   0x080133f8   0x00000026   Code   RO         2615    i.mir3da_open_interrupt  app_mir3da.o
    0x0801341e   0x0801341e   0x00000002   PAD
    0x08013420   0x08013420   0x00000028   Code   RO         2617    i.mir3da_register_read  app_mir3da.o
    0x08013448   0x08013448   0x00000030   Code   RO         2618    i.mir3da_register_write  app_mir3da.o
    0x08013478   0x08013478   0x00000014   Code   RO         2619    i.mir3da_set_enable  app_mir3da.o
    0x0801348c   0x0801348c   0x00000094   Code   RO         1420    i.modeShutDownQuickly  app_task.o
    0x08013520   0x08013520   0x0000001c   Code   RO         1014    i.moduleInfoInit    app_net.o
    0x0801353c   0x0801353c   0x000000c4   Code   RO          236    i.modulePinConfig   app_port.o
    0x08013600   0x08013600   0x00000054   Code   RO         1015    i.modulePowerOff    app_net.o
    0x08013654   0x08013654   0x00000060   Code   RO         1016    i.modulePowerOn     app_net.o
    0x080136b4   0x080136b4   0x00000064   Code   RO         1017    i.moduleReset       app_net.o
    0x08013718   0x08013718   0x00000040   Code   RO         1018    i.moduleResetProcessA  app_net.o
    0x08013758   0x08013758   0x00000238   Code   RO         1019    i.moduleResponParaser  app_net.o
    0x08013990   0x08013990   0x0000001c   Code   RO          237    i.moduleRiSignal    app_port.o
    0x080139ac   0x080139ac   0x00000054   Code   RO          638    i.myAppConfig       app_user.o
    0x08013a00   0x08013a00   0x00000010   Code   RO          639    i.myAppRun          app_user.o
    0x08013a10   0x08013a10   0x00000058   Code   RO          443    i.my_getstrindex    app_sys.o
    0x08013a68   0x08013a68   0x0000002e   Code   RO          444    i.my_strpach        app_sys.o
    0x08013a96   0x08013a96   0x00000036   Code   RO          445    i.my_strstr         app_sys.o
    0x08013acc   0x08013acc   0x0000003a   Code   RO         2064    i.mycmdPatch        app_atcmd.o
    0x08013b06   0x08013b06   0x00000002   PAD
    0x08013b08   0x08013b08   0x00000018   Code   RO         1020    i.n58ATA            app_net.o
    0x08013b20   0x08013b20   0x00000048   Code   RO         1021    i.n58AutoATA        app_net.o
    0x08013b68   0x08013b68   0x00000080   Code   RO         1022    i.n58CCIDParase     app_net.o
    0x08013be8   0x08013be8   0x00000054   Code   RO         1023    i.n58CGSNParase     app_net.o
    0x08013c3c   0x08013c3c   0x000000e0   Code   RO         1024    i.n58CIMIParase     app_net.o
    0x08013d1c   0x08013d1c   0x000000d8   Code   RO         1025    i.n58CMGRparse      app_net.o
    0x08013df4   0x08013df4   0x00000084   Code   RO         1026    i.n58CMTIparase     app_net.o
    0x08013e78   0x08013e78   0x000000a4   Code   RO         1027    i.n58CREGparase     app_net.o
    0x08013f1c   0x08013f1c   0x00000088   Code   RO         1028    i.n58CSQparase      app_net.o
    0x08013fa4   0x08013fa4   0x00000190   Code   RO         1029    i.n58FSLISTparase   app_net.o
    0x08014134   0x08014134   0x0000014c   Code   RO         1030    i.n58FswrParase     app_net.o
    0x08014280   0x08014280   0x00000060   Code   RO         1031    i.n58GmrParser      app_net.o
    0x080142e0   0x080142e0   0x0000002c   Code   RO         1032    i.n58MygpsposParaser  app_net.o
    0x0801430c   0x0801430c   0x00000080   Code   RO         1033    i.n58MygpsstateParase  app_net.o
    0x0801438c   0x0801438c   0x000000e8   Code   RO         1034    i.n58MylacidParse   app_net.o
    0x08014474   0x08014474   0x00000060   Code   RO         1035    i.n58NwblecconParser  app_net.o
    0x080144d4   0x080144d4   0x00000080   Code   RO         1036    i.n58NwbleroleParser  app_net.o
    0x08014554   0x08014554   0x0000007c   Code   RO         1037    i.n58NwbtblepwrParser  app_net.o
    0x080145d0   0x080145d0   0x0000007c   Code   RO         1038    i.n58NwurcblestatParser  app_net.o
    0x0801464c   0x0801464c   0x000000c0   Code   RO         1039    i.n58TCPRecvparase  app_net.o
    0x0801470c   0x0801470c   0x00000090   Code   RO         1040    i.n58TCPcloseparase  app_net.o
    0x0801479c   0x0801479c   0x00000178   Code   RO         1041    i.n58TCPsetupparase  app_net.o
    0x08014914   0x08014914   0x00000088   Code   RO         1042    i.n58TcpsendParase  app_net.o
    0x0801499c   0x0801499c   0x000000d0   Code   RO         1043    i.n58WIFISCANParse  app_net.o
    0x08014a6c   0x08014a6c   0x0000004c   Code   RO         1044    i.n58cgattparase    app_net.o
    0x08014ab8   0x08014ab8   0x0000001c   Code   RO         1045    i.n58cgdcontparase  app_net.o
    0x08014ad4   0x08014ad4   0x0000003c   Code   RO         1046    i.n58mysysteminfoparase  app_net.o
    0x08014b10   0x08014b10   0x0000001c   Code   RO         1049    i.n58xgauthparase   app_net.o
    0x08014b2c   0x08014b2c   0x0000001c   Code   RO         1050    i.n58xiicparase     app_net.o
    0x08014b48   0x08014b48   0x000000a4   Code   RO         1051    i.n58xiicqueryparase  app_net.o
    0x08014bec   0x08014bec   0x00000010   Code   RO         1669    i.netConnectReset   app_serverprotocol.o
    0x08014bfc   0x08014bfc   0x0000003c   Code   RO         1053    i.netExitStopMode   app_net.o
    0x08014c38   0x08014c38   0x0000004c   Code   RO         1421    i.netModuleShutdown  app_task.o
    0x08014c84   0x08014c84   0x0000008c   Code   RO         1422    i.netModuleStartup  app_task.o
    0x08014d10   0x08014d10   0x00000014   Code   RO         1054    i.netWorkModuleRunOk  app_net.o
    0x08014d24   0x08014d24   0x00000050   Code   RO         1968    i.nmeaParse         app_nmea.o
    0x08014d74   0x08014d74   0x0000001c   Code   RO         1056    i.openModuleGPS     app_net.o
    0x08014d90   0x08014d90   0x00000060   Code   RO         1057    i.outPutNodeCmd     app_net.o
    0x08014df0   0x08014df0   0x00000084   Code   RO         1670    i.packIMEI          app_serverprotocol.o
    0x08014e74   0x08014e74   0x00000178   Code   RO          684    i.paramDefaultInit  app_param.o
    0x08014fec   0x08014fec   0x00000020   Code   RO          685    i.paramGetAdcCal    app_param.o
    0x0801500c   0x0801500c   0x0000001c   Code   RO          686    i.paramGetApnName   app_param.o
    0x08015028   0x08015028   0x0000001c   Code   RO          687    i.paramGetApnPswd   app_param.o
    0x08015044   0x08015044   0x0000001c   Code   RO          688    i.paramGetApnUser   app_param.o
    0x08015060   0x08015060   0x00000020   Code   RO          689    i.paramGetBleMac    app_param.o
    0x08015080   0x08015080   0x0000000c   Code   RO          690    i.paramGetCM        app_param.o
    0x0801508c   0x0801508c   0x0000001c   Code   RO          691    i.paramGetCodeVersion  app_param.o
    0x080150a8   0x080150a8   0x0000000c   Code   RO          692    i.paramGetGPSUploadInterval  app_param.o
    0x080150b4   0x080150b4   0x0000000c   Code   RO          693    i.paramGetHeartbeatInterval  app_param.o
    0x080150c0   0x080150c0   0x0000000c   Code   RO          694    i.paramGetLoww      app_param.o
    0x080150cc   0x080150cc   0x00000014   Code   RO          695    i.paramGetMode2cnt  app_param.o
    0x080150e0   0x080150e0   0x0000002c   Code   RO          696    i.paramGetServer    app_param.o
    0x0801510c   0x0801510c   0x00000020   Code   RO          697    i.paramGetSnNumber  app_param.o
    0x0801512c   0x0801512c   0x00000028   Code   RO          698    i.paramGetUPSServer  app_param.o
    0x08015154   0x08015154   0x000001ac   Code   RO          700    i.paramInit         app_param.o
    0x08015300   0x08015300   0x00000018   Code   RO          701    i.paramSaveACCCTLGNSS  app_param.o
    0x08015318   0x08015318   0x00000020   Code   RO          702    i.paramSaveAdcCal   app_param.o
    0x08015338   0x08015338   0x00000028   Code   RO          703    i.paramSaveAlarmTime  app_param.o
    0x08015360   0x08015360   0x0000003c   Code   RO          704    i.paramSaveApnName  app_param.o
    0x0801539c   0x0801539c   0x0000003c   Code   RO          705    i.paramSaveApnPswd  app_param.o
    0x080153d8   0x080153d8   0x0000003c   Code   RO          706    i.paramSaveApnUser  app_param.o
    0x08015414   0x08015414   0x00000018   Code   RO          707    i.paramSaveAutoAnswer  app_param.o
    0x0801542c   0x0801542c   0x00000018   Code   RO          708    i.paramSaveBF       app_param.o
    0x08015444   0x08015444   0x0000003e   Code   RO          709    i.paramSaveBleMac   app_param.o
    0x08015482   0x08015482   0x0000000e   Code   RO          710    i.paramSaveCM       app_param.o
    0x08015490   0x08015490   0x00000026   Code   RO          711    i.paramSaveCodeVersion  app_param.o
    0x080154b6   0x080154b6   0x00000002   PAD
    0x080154b8   0x080154b8   0x00000018   Code   RO          712    i.paramSaveFence    app_param.o
    0x080154d0   0x080154d0   0x00000010   Code   RO          713    i.paramSaveGPSUploadInterval  app_param.o
    0x080154e0   0x080154e0   0x00000014   Code   RO          714    i.paramSaveHardFault  app_param.o
    0x080154f4   0x080154f4   0x00000010   Code   RO          715    i.paramSaveHeartbeatInterval  app_param.o
    0x08015504   0x08015504   0x00000018   Code   RO          716    i.paramSaveInterval  app_param.o
    0x0801551c   0x0801551c   0x00000018   Code   RO          717    i.paramSaveLedCtl   app_param.o
    0x08015534   0x08015534   0x00000018   Code   RO          718    i.paramSaveLightAlarmMode  app_param.o
    0x0801554c   0x0801554c   0x0000000e   Code   RO          719    i.paramSaveLoww     app_param.o
    0x0801555a   0x0801555a   0x00000002   PAD
    0x0801555c   0x0801555c   0x00000014   Code   RO          720    i.paramSaveMallocFault  app_param.o
    0x08015570   0x08015570   0x00000018   Code   RO          721    i.paramSaveMode     app_param.o
    0x08015588   0x08015588   0x00000018   Code   RO          722    i.paramSaveMode1GapDay  app_param.o
    0x080155a0   0x080155a0   0x00000018   Code   RO          723    i.paramSaveMode1Timer  app_param.o
    0x080155b8   0x080155b8   0x00000018   Code   RO          724    i.paramSaveMode2cnt  app_param.o
    0x080155d0   0x080155d0   0x00000018   Code   RO          725    i.paramSaveNoNetWakeUpMinutes  app_param.o
    0x080155e8   0x080155e8   0x00000018   Code   RO          726    i.paramSavePdop     app_param.o
    0x08015600   0x08015600   0x00000018   Code   RO          727    i.paramSavePoitype  app_param.o
    0x08015618   0x08015618   0x0000004a   Code   RO          728    i.paramSaveServer   app_param.o
    0x08015662   0x08015662   0x0000000e   Code   RO          730    i.paramSaveSmsreply  app_param.o
    0x08015670   0x08015670   0x0000001e   Code   RO          731    i.paramSaveSnNumber  app_param.o
    0x0801568e   0x0801568e   0x00000002   PAD
    0x08015690   0x08015690   0x00000018   Code   RO          732    i.paramSaveTurnalg  app_param.o
    0x080156a8   0x080156a8   0x00000046   Code   RO          733    i.paramSaveUPSServer  app_param.o
    0x080156ee   0x080156ee   0x00000002   PAD
    0x080156f0   0x080156f0   0x00000018   Code   RO          734    i.paramSaveUTC      app_param.o
    0x08015708   0x08015708   0x00000014   Code   RO          735    i.paramSaveUpdateStatus  app_param.o
    0x0801571c   0x0801571c   0x00000134   Code   RO          446    i.paraseInstructionToItem  app_sys.o
    0x08015850   0x08015850   0x00000138   Code   RO         1969    i.parseGPS          app_nmea.o
    0x08015988   0x08015988   0x0000001c   Code   RO         1970    i.parse_GGA         app_nmea.o
    0x080159a4   0x080159a4   0x0000003c   Code   RO         1971    i.parse_GSA         app_nmea.o
    0x080159e0   0x080159e0   0x000001c4   Code   RO         1972    i.parse_GSV         app_nmea.o
    0x08015ba4   0x08015ba4   0x00000158   Code   RO         1973    i.parse_RMC         app_nmea.o
    0x08015cfc   0x08015cfc   0x00000020   Code   RO          238    i.pollUartData      app_port.o
    0x08015d1c   0x08015d1c   0x000009fc   Code   RO         5943    i.pow               m_ps.l(pow.o)
    0x08016718   0x08016718   0x00000044   Code   RO         1671    i.protocolFsmStateChange  app_serverprotocol.o
    0x0801675c   0x0801675c   0x000001d0   Code   RO         1672    i.protocolGPSpack   app_serverprotocol.o
    0x0801692c   0x0801692c   0x0000010c   Code   RO         1674    i.protocolRxParase  app_serverprotocol.o
    0x08016a38   0x08016a38   0x0000000a   Code   RO         1058    i.reConnectServer   app_net.o
    0x08016a42   0x08016a42   0x00000002   PAD
    0x08016a44   0x08016a44   0x0000001c   Code   RO         1675    i.reCover123InstructionId  app_serverprotocol.o
    0x08016a60   0x08016a60   0x00000048   Code   RO         2620    i.readInterruptConfig  app_mir3da.o
    0x08016aa8   0x08016aa8   0x000000b0   Code   RO         2621    i.read_gsensor_id   app_mir3da.o
    0x08016b58   0x08016b58   0x0000000c   Code   RO         2392    i.recCycleStart     app_rec.o
    0x08016b64   0x08016b64   0x00000018   Code   RO         2393    i.recCycleStop      app_rec.o
    0x08016b7c   0x08016b7c   0x00000074   Code   RO         2394    i.recCycleTask      app_rec.o
    0x08016bf0   0x08016bf0   0x00000008   Code   RO         2395    i.recGetRecStruct   app_rec.o
    0x08016bf8   0x08016bf8   0x00000014   Code   RO         2396    i.recIsRun          app_rec.o
    0x08016c0c   0x08016c0c   0x00000028   Code   RO         2397    i.recNoFileToread   app_rec.o
    0x08016c34   0x08016c34   0x0000000c   Code   RO         2398    i.recReadFileOk     app_rec.o
    0x08016c40   0x08016c40   0x000000bc   Code   RO         2399    i.recRecordUploadTask  app_rec.o
    0x08016cfc   0x08016cfc   0x000000a4   Code   RO         2400    i.recStart          app_rec.o
    0x08016da0   0x08016da0   0x00000038   Code   RO         2401    i.recStop           app_rec.o
    0x08016dd8   0x08016dd8   0x00000014   Code   RO         2402    i.recStopAndUpload  app_rec.o
    0x08016dec   0x08016dec   0x00000014   Code   RO         2403    i.recUpdateFileName  app_rec.o
    0x08016e00   0x08016e00   0x0000004c   Code   RO         2404    i.recUpdateFileSize  app_rec.o
    0x08016e4c   0x08016e4c   0x0000000a   Code   RO         1423    i.repairGsensor     app_task.o
    0x08016e56   0x08016e56   0x00000002   PAD
    0x08016e58   0x08016e58   0x0000000c   Code   RO         2405    i.resIsCycleRuning  app_rec.o
    0x08016e64   0x08016e64   0x0000001c   Code   RO         1676    i.save123InstructionId  app_serverprotocol.o
    0x08016e80   0x08016e80   0x0000002c   Code   RO         1059    i.sendDataToServer  app_net.o
    0x08016eac   0x08016eac   0x0000004c   Code   RO         1060    i.sendMessage       app_net.o
    0x08016ef8   0x08016ef8   0x000000f8   Code   RO         2203    i.sendMessageWithDifMode  app_instructioncmd.o
    0x08016ff0   0x08016ff0   0x000000d0   Code   RO         1061    i.sendModuleCmd     app_net.o
    0x080170c0   0x080170c0   0x00000120   Code   RO         1677    i.sendProtocolToServer  app_serverprotocol.o
    0x080171e0   0x080171e0   0x00000140   Code   RO          239    i.setNextAlarmTime  app_port.o
    0x08017320   0x08017320   0x000000d8   Code   RO          240    i.setNextWakeUpTime  app_port.o
    0x080173f8   0x080173f8   0x000000b8   Code   RO         2498    i.setkey            app_sn.o
    0x080174b0   0x080174b0   0x000001ec   Code   RO         1974    i.showgpsinfo       app_nmea.o
    0x0801769c   0x0801769c   0x00000084   Code   RO         1424    i.signalLedTask     app_task.o
    0x08017720   0x08017720   0x0000009c   Code   RO         5953    i.sin               m_ps.l(sin.o)
    0x080177bc   0x080177bc   0x00000048   Code   RO         5961    i.sqrt              m_ps.l(sqrt.o)
    0x08017804   0x08017804   0x00000070   Code   RO            7    i.startTimer        app_kernal.o
    0x08017874   0x08017874   0x00000068   Code   RO            8    i.stopTimer         app_kernal.o
    0x080178dc   0x080178dc   0x00000050   Code   RO         1425    i.systemModeRunStart  app_task.o
    0x0801792c   0x0801792c   0x0000021c   Code   RO         1426    i.systemModeRunTask  app_task.o
    0x08017b48   0x08017b48   0x00000010   Code   RO         1427    i.systemRequestClear  app_task.o
    0x08017b58   0x08017b58   0x00000010   Code   RO         1428    i.systemRequestSet  app_task.o
    0x08017b68   0x08017b68   0x00000170   Code   RO         1429    i.systemRequestTask  app_task.o
    0x08017cd8   0x08017cd8   0x00000090   Code   RO         1430    i.systemShutDown    app_task.o
    0x08017d68   0x08017d68   0x00000050   Code   RO           10    i.systemTaskResume  app_kernal.o
    0x08017db8   0x08017db8   0x00000050   Code   RO           11    i.systemTaskSuspend  app_kernal.o
    0x08017e08   0x08017e08   0x00000040   Code   RO         1431    i.taskRunInOneSecond  app_task.o
    0x08017e48   0x08017e48   0x00000010   Code   RO          447    i.terminalAccoff    app_sys.o
    0x08017e58   0x08017e58   0x00000010   Code   RO          448    i.terminalAccon     app_sys.o
    0x08017e68   0x08017e68   0x00000014   Code   RO          449    i.terminalAlarmSet  app_sys.o
    0x08017e7c   0x08017e7c   0x00000010   Code   RO          450    i.terminalCharge    app_sys.o
    0x08017e8c   0x08017e8c   0x00000010   Code   RO          453    i.terminalGPSFixed  app_sys.o
    0x08017e9c   0x08017e9c   0x00000010   Code   RO          454    i.terminalGPSUnFixed  app_sys.o
    0x08017eac   0x08017eac   0x00000010   Code   RO          455    i.terminalunCharge  app_sys.o
    0x08017ebc   0x08017ebc   0x0000008c   Code   RO          241    i.updateAlarmA      app_port.o
    0x08017f48   0x08017f48   0x0000006c   Code   RO         1842    i.updateLocalRTCTime  app_gps.o
    0x08017fb4   0x08017fb4   0x000000b8   Code   RO          242    i.updateRTCdatetime  app_port.o
    0x0801806c   0x0801806c   0x00000010   Code   RO          456    i.updateRTCtimeRequest  app_sys.o
    0x0801807c   0x0801807c   0x00000070   Code   RO         1432    i.updateSystemLedStatus  app_task.o
    0x080180ec   0x080180ec   0x0000000c   Code   RO          457    i.updateSystemStartTime  app_sys.o
    0x080180f8   0x080180f8   0x000000b4   Code   RO         1433    i.uploadRequestInMode4  app_task.o
    0x080181ac   0x080181ac   0x00000094   Code   RO          243    i.usartGetDataFromDma  app_port.o
    0x08018240   0x08018240   0x0000035c   Code   RO         1434    i.voltageCheckTask  app_task.o
    0x0801859c   0x0801859c   0x00000124   Code   RO         1435    i.wdtProcess        app_task.o
    0x080186c0   0x080186c0   0x00000016   Code   RO         1436    i.wifiScanStart     app_task.o
    0x080186d6   0x080186d6   0x00000002   PAD
    0x080186d8   0x080186d8   0x00000034   Code   RO         1437    i.wifiUploadRequestTask  app_task.o
    0x0801870c   0x0801870c   0x00000056   Code   RO         2499    i.ztvm_encrypt_des  app_sn.o
    0x08018762   0x08018762   0x00000058   Code   RO         2500    i.ztvm_encrypt_undes  app_sn.o
    0x080187ba   0x080187ba   0x00000028   Code   RO         2501    i.ztvm_encrypt_untrides  app_sn.o
    0x080187e2   0x080187e2   0x00000218   Data   RO          459    .constdata          app_sys.o
    0x080189fa   0x080189fa   0x00000498   Data   RO         1063    .constdata          app_net.o
    0x08018e92   0x08018e92   0x00000385   Data   RO         2065    .constdata          app_atcmd.o
    0x08019217   0x08019217   0x00000348   Data   RO         2503    .constdata          app_sn.o
    0x0801955f   0x0801955f   0x00000019   Data   RO         5883    .constdata          system_stm32l0xx.o
    0x08019578   0x08019578   0x00000008   Data   RO         5884    .constdata          system_stm32l0xx.o
    0x08019580   0x08019580   0x00000050   Data   RO         5922    .constdata          m_ps.l(asin.o)
    0x080195d0   0x080195d0   0x00000088   Data   RO         5944    .constdata          m_ps.l(pow.o)
    0x08019658   0x08019658   0x0000000c   Data   RO         5978    .constdata          mc_p.l(mktime.o)
    0x08019664   0x08019664   0x00000004   PAD
    0x08019668   0x08019668   0x00000030   Data   RO         6324    .constdata          m_ps.l(cos_i.o)
    0x08019698   0x08019698   0x00000008   Data   RO         6344    .constdata          m_ps.l(qnan.o)
    0x080196a0   0x080196a0   0x000000c8   Data   RO         6347    .constdata          m_ps.l(rred.o)
    0x08019768   0x08019768   0x00000028   Data   RO         6351    .constdata          m_ps.l(sin_i.o)
    0x08019790   0x08019790   0x00000081   Data   RO         6382    .constdata          mc_p.l(ctype_o.o)
    0x08019811   0x08019811   0x00000003   PAD
    0x08019814   0x08019814   0x00000004   Data   RO         6383    .constdata          mc_p.l(ctype_o.o)
    0x08019818   0x08019818   0x0000000c   Data   RO         6413    .constdata          mc_p.l(localtime_i.o)
    0x08019824   0x08019824   0x0000020d   Data   RO         2205    .conststring        app_instructioncmd.o
    0x08019a31   0x08019a31   0x00000003   PAD
    0x08019a34   0x08019a34   0x00000020   Data   RO         6464    Region$$Table       anon$$obj.o


    Execution Region RW_IRAM1 (Exec base: 0x20000000, Load base: 0x08019a54, Size: 0x00003c90, Max: 0x00005000, ABSOLUTE)

    Exec Addr    Load Addr    Size         Type   Attr      Idx    E Section Name        Object

    0x20000000   0x08019a54   0x00000004   Data   RW           14    .data               app_kernal.o
    0x20000004   0x08019a58   0x00000008   Data   RW          245    .data               app_port.o
    0x2000000c   0x08019a60   0x00000008   Data   RW         1064    .data               app_net.o
    0x20000014   0x08019a68   0x00000024   Data   RW         1439    .data               app_task.o
    0x20000038   0x08019a8c   0x0000000c   Data   RW         1679    .data               app_serverprotocol.o
    0x20000044   0x08019a98   0x00000001   Data   RW         1976    .data               app_nmea.o
    0x20000045   0x08019a99   0x00000001   Data   RW         2206    .data               app_instructioncmd.o
    0x20000046   0x08019a9a   0x00000012   Data   RW         2504    .data               app_sn.o
    0x20000058   0x08019aac   0x00000008   Data   RW         2571    .data               app_gpsarithmetic.o
    0x20000060   0x08019ab4   0x00000001   Data   RW         2622    .data               app_mir3da.o
    0x20000061   0x08019ab5   0x00000003   PAD
    0x20000064   0x08019ab8   0x0000000c   Data   RW         3391    .data               stm32l0xx_hal.o
    0x20000070   0x08019ac4   0x00000004   Data   RW         5885    .data               system_stm32l0xx.o
    0x20000074   0x08019ac8   0x00000004   Data   RW         6415    .data               mc_p.l(mvars.o)
    0x20000078   0x08019acc   0x00000004   Data   RW         6416    .data               mc_p.l(mvars.o)
    0x2000007c   0x08019ad0   0x00000004   Data   RW         6420    .data               mc_p.l(errno.o)
    0x20000080        -       0x00000010   Zero   RW           13    .bss                app_kernal.o
    0x20000090        -       0x00000bbc   Zero   RW          244    .bss                app_port.o
    0x20000c4c        -       0x0000017c   Zero   RW          458    .bss                app_sys.o
    0x20000dc8        -       0x00000142   Zero   RW          736    .bss                app_param.o
    0x20000f0a   0x08019ad4   0x00000002   PAD
    0x20000f0c        -       0x000000a1   Zero   RW         1062    .bss                app_net.o
    0x20000fad   0x08019ad4   0x00000003   PAD
    0x20000fb0        -       0x00000020   Zero   RW         1438    .bss                app_task.o
    0x20000fd0        -       0x00000020   Zero   RW         1678    .bss                app_serverprotocol.o
    0x20000ff0        -       0x00000438   Zero   RW         1843    .bss                app_gps.o
    0x20001428        -       0x0000003c   Zero   RW         1919    .bss                app_gpsrestore.o
    0x20001464   0x08019ad4   0x00000004   PAD
    0x20001468        -       0x00000070   Zero   RW         1975    .bss                app_nmea.o
    0x200014d8        -       0x0000001e   Zero   RW         2204    .bss                app_instructioncmd.o
    0x200014f6   0x08019ad4   0x00000002   PAD
    0x200014f8        -       0x00000044   Zero   RW         2406    .bss                app_rec.o
    0x2000153c        -       0x000003c0   Zero   RW         2502    .bss                app_sn.o
    0x200018fc   0x08019ad4   0x00000004   PAD
    0x20001900        -       0x00000020   Zero   RW         2570    .bss                app_gpsarithmetic.o
    0x20001920        -       0x00000017   Zero   RW         2690    .bss                app_ble.o
    0x20001937   0x08019ad4   0x00000001   PAD
    0x20001938        -       0x0000005c   Zero   RW         2806    .bss                adc.o
    0x20001994        -       0x0000004c   Zero   RW         2864    .bss                i2c.o
    0x200019e0        -       0x00000010   Zero   RW         2900    .bss                iwdg.o
    0x200019f0        -       0x00000264   Zero   RW         2930    .bss                usart.o
    0x20001c54        -       0x00000024   Zero   RW         2978    .bss                rtc.o
    0x20001c78        -       0x00000018   Zero   RW         4304    .bss                stm32l0xx_hal_flash.o
    0x20001c90        -       0x00001000   Zero   RW         5914    HEAP                startup_stm32l071xx.o
    0x20002c90        -       0x00001000   Zero   RW         5913    STACK               startup_stm32l071xx.o


==============================================================================

Image component sizes


      Code (inc. data)   RO Data    RW Data    ZI Data      Debug   Object Name

       192         20          0          0         92       1499   adc.o
      2982        962        901          0          0      12721   app_atcmd.o
       376         66          0          0         23       3768   app_ble.o
       404         52          0          0       1080       3936   app_gps.o
       964        176          0          8         32       4184   app_gpsarithmetic.o
       180         52          0          0         60       2537   app_gpsrestore.o
      9284       3688        525          1         30      27439   app_instructioncmd.o
       820        256          0          4         16     365601   app_kernal.o
       670        186          0          1          0       4522   app_mir3da.o
      6200       1540       1176          8        161      37892   app_net.o
      2252        308          0          1        112       9136   app_nmea.o
      2364        338          0          0        322      30776   app_param.o
      2772        758          0          8       3004      21473   app_port.o
       768        232          0          0         68       7001   app_rec.o
      3172        348          0         12         32      19547   app_serverprotocol.o
      1136         36        840         18        960       8303   app_sn.o
      1568        194        536          0        380      18849   app_sys.o
      6116       1776          0         36         32      23565   app_task.o
       134         24          0          0          0       6374   app_user.o
        56          4          0          0          0        674   dma.o
       268         30          0          0          0        899   gpio.o
       236         40          0          0         76       1933   i2c.o
        44         12          0          0         16        603   iwdg.o
       188         10          0          0          0       1780   main.o
       116         16          0          0         36       1315   rtc.o
        28          8        192          0       8192        576   startup_stm32l071xx.o
       204         36          0         12          0       9872   stm32l0xx_hal.o
      1274         36          0          0          0       8328   stm32l0xx_hal_adc.o
       170          0          0          0          0       1366   stm32l0xx_hal_adc_ex.o
       208         40          0          0          0      13182   stm32l0xx_hal_cortex.o
       712         22          0          0          0       5958   stm32l0xx_hal_dma.o
       256         16          0          0         24       4086   stm32l0xx_hal_flash.o
       156         26          0          0          0       2199   stm32l0xx_hal_flash_ex.o
       674         66          0          0          0       4212   stm32l0xx_hal_gpio.o
      1516         36          0          0          0      11703   stm32l0xx_hal_i2c.o
       146          0          0          0          0       1827   stm32l0xx_hal_i2c_ex.o
       116         20          0          0          0       1675   stm32l0xx_hal_iwdg.o
        24          4          0          0          0        406   stm32l0xx_hal_msp.o
       116         16          0          0          0       1211   stm32l0xx_hal_pwr.o
        32          8          0          0          0        989   stm32l0xx_hal_pwr_ex.o
      1718         90          0          0          0       5556   stm32l0xx_hal_rcc.o
       376         14          0          0          0       1392   stm32l0xx_hal_rcc_ex.o
      1744         42          0          0          0      10545   stm32l0xx_hal_rtc.o
       306         18          0          0          0       3100   stm32l0xx_hal_rtc_ex.o
      2566        100          0          0          0      15697   stm32l0xx_hal_uart.o
         2          0          0          0          0        948   stm32l0xx_hal_uart_ex.o
       178         36          0          0          0       5045   stm32l0xx_it.o
        88         22         33          4          0       1139   system_stm32l0xx.o
       696         78          0          0        612       3466   usart.o

    ----------------------------------------------------------------------
     56632      11858       4238        116      15376     730805   Object Totals
         0          0         32          0          0          0   (incl. Generated)
        64          0          3          3         16          0   (incl. Padding)

    ----------------------------------------------------------------------

      Code (inc. data)   RO Data    RW Data    ZI Data      Debug   Library Member Name

       628         54         80          0          0        104   asin.o
        42          0          0          0          0         76   atof.o
       152         10          0          0          0        104   cos.o
       244         20         48          0          0         92   cos_i.o
        94         14          0          0          0        408   dunder.o
        44          4          0          0          0         60   fpclassify.o
       172          0          0          0          0         76   poly.o
      2556        196        136          0          0        240   pow.o
         0          0          8          0          0          0   qnan.o
       924         86        200          0          0        120   rred.o
       156         10          0          0          0        104   sin.o
       236         14         40          0          0        100   sin_i.o
        72          6          0          0          0         76   sqrt.o
        30          0          0          0          0         60   _chval.o
        68          0          0          0          0         76   _sgetc.o
       166          0          0          0          0         84   _strtoul.o
        26          0          0          0          0         72   atoi.o
        26          0          0          0          0         72   atol.o
         8          4        133          0          0         60   ctype_o.o
         0          0          0          0          0          0   entry.o
         0          0          0          0          0          0   entry10a.o
         0          0          0          0          0          0   entry11a.o
         4          0          0          0          0          0   entry12b.o
         8          4          0          0          0          0   entry2.o
         4          0          0          0          0          0   entry5.o
         0          0          0          0          0          0   entry7b.o
         0          0          0          0          0          0   entry8b.o
         8          4          0          0          0          0   entry9a.o
        32         16          0          4          0        180   errno.o
        30          0          0          0          0          0   handlers.o
        40          0          0          0          0         72   idiv.o
        36          8          0          0          0         68   init.o
        18          0          0          0          0         68   isspace_o.o
         0          0          0          0          0          0   iusefp.o
       122          0          0          0          0         84   llmul.o
        32          0          0          0          0         68   llshl.o
        38          0          0          0          0         68   llsshr.o
        34          0          0          0          0         68   llushr.o
       116         12         12          0          0         72   localtime_i.o
       192         20          0          0          0        144   malloc.o
        36          0          0          0          0         60   memcpya.o
        36          0          0          0          0        100   memseta.o
       140         16         12          0          0         72   mktime.o
         0          0          0          8          0          0   mvars.o
      2310        100          0          0          0        544   printfa.o
       898         12          0          0          0        184   scanf_fp.o
        18          0          0          0          0         60   strcpy.o
        14          0          0          0          0         60   strlen.o
        26          0          0          0          0         68   strncpy.o
        40          0          0          0          0         72   strstr.o
       164         16          0          0          0        120   strtod.o
       112          4          0          0          0         76   strtol.o
       118          0          0          0          0         84   strtoul.o
        44          0          0          0          0         72   uidiv.o
        96          0          0          0          0         84   uldiv.o
        40          2          0          0          0         68   cdcmple.o
        40          2          0          0          0         68   cdrcmple.o
        20          0          0          0          0         68   cfcmple.o
        56          0          0          0          0         68   d2f.o
       360          6          0          0          0        140   dadd.o
       240          6          0          0          0         84   ddiv.o
       236          0          0          0          0        216   depilogue.o
        72         10          0          0          0         72   dfixi.o
        60         10          0          0          0         68   dfixui.o
        64         10          0          0          0         68   dfixul.o
        40          6          0          0          0         68   dflti.o
        28          4          0          0          0         68   dfltui.o
        28          6          0          0          0         68   dfltul.o
       208          6          0          0          0         88   dmul.o
        44          0          0          0          0         72   dscalb.o
       162          0          0          0          0         80   dsqrt.o
        40          0          0          0          0         60   f2d.o
       178          0          0          0          0        108   fadd.o
       124          0          0          0          0         72   fdiv.o
       130          0          0          0          0        144   fepilogue.o
        40          0          0          0          0         60   ffixui.o
        14          0          0          0          0         68   ffltui.o
       122          0          0          0          0         72   fmul.o

    ----------------------------------------------------------------------
     12778        698        676         12          0       6480   Library Totals
        22          0          7          0          0          0   (incl. Padding)

    ----------------------------------------------------------------------

      Code (inc. data)   RO Data    RW Data    ZI Data      Debug   Library Name

      5320        414        512          0          0       1560   m_ps.l
      5090        216        157         12          0       2972   mc_p.l
      2346         68          0          0          0       1948   mf_p.l

    ----------------------------------------------------------------------
     12778        698        676         12          0       6480   Library Totals

    ----------------------------------------------------------------------

==============================================================================


      Code (inc. data)   RO Data    RW Data    ZI Data      Debug   

     69410      12556       4914        128      15376     712465   Grand Totals
     69410      12556       4914        128      15376     712465   ELF Image Totals
     69410      12556       4914        128          0          0   ROM Totals

==============================================================================

    Total RO  Size (Code + RO Data)                74324 (  72.58kB)
    Total RW  Size (RW Data + ZI Data)             15504 (  15.14kB)
    Total ROM Size (Code + RO Data + RW Data)      74452 (  72.71kB)

==============================================================================

